(dp0
I1
(lp1
cnumpy.core.multiarray
scalar
p2
(cnumpy
dtype
p3
(S'f4'
p4
I0
I1
tp5
Rp6
(I3
S'<'
p7
NNNI-1
I-1
I0
tp8
bS'\xc4-\xb3\xbe'
p9
tp10
Rp11
ag2
(g6
S'3*\x12\xbf'
p12
tp13
Rp14
ag2
(g6
S'\\)\x9e\xbd'
p15
tp16
Rp17
ag2
(g6
S'\xc2F6\xbe'
p18
tp19
Rp20
ag2
(g6
S'B\x16\x13>'
p21
tp22
Rp23
ag2
(g6
S'*b\x98<'
p24
tp25
Rp26
ag2
(g6
S'\x18q->'
p27
tp28
Rp29
ag2
(g6
S'b\xfe3?'
p30
tp31
Rp32
ag2
(g6
S'\xa1\x16\xa9='
p33
tp34
Rp35
ag2
(g6
S'\xe1\xeb\xdf\xbe'
p36
tp37
Rp38
ag2
(g6
S'\x8c\xf7\xbf\xbe'
p39
tp40
Rp41
ag2
(g6
S'&\x10\xf8>'
p42
tp43
Rp44
ag2
(g6
S'\x07\x9a\x95>'
p45
tp46
Rp47
ag2
(g6
S'\xc6\x8a\x98\xbe'
p48
tp49
Rp50
ag2
(g6
S'\xfa\xf72>'
p51
tp52
Rp53
ag2
(g6
S'#~ \xbf'
p54
tp55
Rp56
ag2
(g6
S'~\x0c\xbd\xbe'
p57
tp58
Rp59
ag2
(g6
S'%\xde\x8c>'
p60
tp61
Rp62
ag2
(g6
S'\x97J\x8b\xbe'
p63
tp64
Rp65
ag2
(g6
S'\xa6\x9c\xc5\xbe'
p66
tp67
Rp68
asI2
(lp69
g2
(g6
S'H#\xd9\xbe'
p70
tp71
Rp72
ag2
(g6
S':\xf6\xc2\xbd'
p73
tp74
Rp75
ag2
(g6
S'\xc5R\\\xbe'
p76
tp77
Rp78
ag2
(g6
S'\x82z\x95\xbe'
p79
tp80
Rp81
ag2
(g6
S'|\xc8\x07?'
p82
tp83
Rp84
ag2
(g6
S'~\xe2\xa2\xbe'
p85
tp86
Rp87
ag2
(g6
S'ci\xc7\xbe'
p88
tp89
Rp90
ag2
(g6
S',\x81\x91>'
p91
tp92
Rp93
ag2
(g6
S'\x14\xd0\xbd>'
p94
tp95
Rp96
ag2
(g6
S'\xd0\xbc\x08\xbf'
p97
tp98
Rp99
ag2
(g6
S'\xb9b\xc7\xbe'
p100
tp101
Rp102
ag2
(g6
S'\xd6\xe1\xa3>'
p103
tp104
Rp105
ag2
(g6
S'?\xff\xec>'
p106
tp107
Rp108
ag2
(g6
S'\x05\xa7-\xbe'
p109
tp110
Rp111
ag2
(g6
S'\xccb?>'
p112
tp113
Rp114
ag2
(g6
S'\xa2\x8f\xb1\xbe'
p115
tp116
Rp117
ag2
(g6
S'\xbc\xd8!\xbd'
p118
tp119
Rp120
ag2
(g6
S'\xd2i\xdf>'
p121
tp122
Rp123
ag2
(g6
S'\x8b\x83\xec\xbd'
p124
tp125
Rp126
ag2
(g6
S'\x80\xaan\xbd'
p127
tp128
Rp129
asI3
(lp130
g2
(g6
S'\xa4l\x02\xbf'
p131
tp132
Rp133
ag2
(g6
S'~\\}\xbe'
p134
tp135
Rp136
ag2
(g6
S'CYG\xbe'
p137
tp138
Rp139
ag2
(g6
S'\x8a*\xce\xbe'
p140
tp141
Rp142
ag2
(g6
S'\xe6\x9a\xf6='
p143
tp144
Rp145
ag2
(g6
S'\xf6\xf88\xbe'
p146
tp147
Rp148
ag2
(g6
S'\xb2\xb1\xb1\xbe'
p149
tp150
Rp151
ag2
(g6
S'g\xff:>'
p152
tp153
Rp154
ag2
(g6
S'\xced\x9e>'
p155
tp156
Rp157
ag2
(g6
S'\xfb|\x8f\xbe'
p158
tp159
Rp160
ag2
(g6
S'\xecq\xc8\xbe'
p161
tp162
Rp163
ag2
(g6
S'\xa19\x0b?'
p164
tp165
Rp166
ag2
(g6
S'\xd8;\xb5>'
p167
tp168
Rp169
ag2
(g6
S'/\xdf\xd7\xbd'
p170
tp171
Rp172
ag2
(g6
S'tx\x1c>'
p173
tp174
Rp175
ag2
(g6
S'T*\xad\xbe'
p176
tp177
Rp178
ag2
(g6
S'!d\xc3='
p179
tp180
Rp181
ag2
(g6
S'\xea\x12!?'
p182
tp183
Rp184
ag2
(g6
S'\x006E\xbe'
p185
tp186
Rp187
ag2
(g6
S'\xd6\x03\x06\xbf'
p188
tp189
Rp190
asI4
(lp191
g2
(g6
S'`\x8d\xd8\xbe'
p192
tp193
Rp194
ag2
(g6
S'\xacN\xa6\xbe'
p195
tp196
Rp197
ag2
(g6
S'\x14\xb7\xac\xbe'
p198
tp199
Rp200
ag2
(g6
S'j=\xbd\xbe'
p201
tp202
Rp203
ag2
(g6
S'\xafs\x99>'
p204
tp205
Rp206
ag2
(g6
S'4f\xb9\xbc'
p207
tp208
Rp209
ag2
(g6
S'Vq\x9e\xbd'
p210
tp211
Rp212
ag2
(g6
S'-3\r>'
p213
tp214
Rp215
ag2
(g6
S'\xdd&\x9c>'
p216
tp217
Rp218
ag2
(g6
S'\xb8\x03\xc3\xbe'
p219
tp220
Rp221
ag2
(g6
S'`\xa4\x00\xbe'
p222
tp223
Rp224
ag2
(g6
S'e\x1c\t?'
p225
tp226
Rp227
ag2
(g6
S'F\xc8\xc8>'
p228
tp229
Rp230
ag2
(g6
S'_\xd2\x90\xbe'
p231
tp232
Rp233
ag2
(g6
S'\x16\x10j='
p234
tp235
Rp236
ag2
(g6
S'f\xe2\x13\xbf'
p237
tp238
Rp239
ag2
(g6
S'2D\xf5\xbd'
p240
tp241
Rp242
ag2
(g6
S'\xf4!\xa6>'
p243
tp244
Rp245
ag2
(g6
S'\x93\xbf\xdb\xbd'
p246
tp247
Rp248
ag2
(g6
S'@\xf1\x02\xbf'
p249
tp250
Rp251
asI5
(lp252
g2
(g6
S'\x92X\x1f\xbf'
p253
tp254
Rp255
ag2
(g6
S'*\x10\xb8\xbe'
p256
tp257
Rp258
ag2
(g6
S'\xf0e\x9f\xbb'
p259
tp260
Rp261
ag2
(g6
S'F;\x01\xbf'
p262
tp263
Rp264
ag2
(g6
S'\xe4\x8d\xb5>'
p265
tp266
Rp267
ag2
(g6
S'\xf5_\x9e\xbe'
p268
tp269
Rp270
ag2
(g6
S'\x82U\x87\xbe'
p271
tp272
Rp273
ag2
(g6
S'R\xa6\xe2>'
p274
tp275
Rp276
ag2
(g6
S'\xbc\xb5\xa2>'
p277
tp278
Rp279
ag2
(g6
S'\xa0\xf0x\xbe'
p280
tp281
Rp282
ag2
(g6
S'=\xb3\x83\xbe'
p283
tp284
Rp285
ag2
(g6
S'\xbc\x05N>'
p286
tp287
Rp288
ag2
(g6
S'<\xdc\xdf>'
p289
tp290
Rp291
ag2
(g6
S'\x96\xe7\xa1\xbe'
p292
tp293
Rp294
ag2
(g6
S'dA\x91>'
p295
tp296
Rp297
ag2
(g6
S'\x17_\x90\xbe'
p298
tp299
Rp300
ag2
(g6
S'`\x91\xf1>'
p301
tp302
Rp303
ag2
(g6
S'ya\x85>'
p304
tp305
Rp306
ag2
(g6
S'\xd7H\x97\xbe'
p307
tp308
Rp309
ag2
(g6
S'\x06\xba\x0b\xbf'
p310
tp311
Rp312
asI6
(lp313
g2
(g6
S'\x9e\x82\xf4\xbe'
p314
tp315
Rp316
ag2
(g6
S'\x05+-\xbe'
p317
tp318
Rp319
ag2
(g6
S'<\xac\x1e\xbe'
p320
tp321
Rp322
ag2
(g6
S'd%n\xbd'
p323
tp324
Rp325
ag2
(g6
S'\xda~\xd1>'
p326
tp327
Rp328
ag2
(g6
S'\x0c\xf1\x83='
p329
tp330
Rp331
ag2
(g6
S'\x86\xc1\xed\xbd'
p332
tp333
Rp334
ag2
(g6
S'*8\x0b?'
p335
tp336
Rp337
ag2
(g6
S'\xde\x11\x94>'
p338
tp339
Rp340
ag2
(g6
S'\x06\xf9\xec\xbe'
p341
tp342
Rp343
ag2
(g6
S'\x1c\xb8\\\xbe'
p344
tp345
Rp346
ag2
(g6
S'\xe4\x9a\xa3>'
p347
tp348
Rp349
ag2
(g6
S'\xb5\xb0H>'
p350
tp351
Rp352
ag2
(g6
S'\xcf\x8b\xc0\xbe'
p353
tp354
Rp355
ag2
(g6
S'\xad\x01\xc7>'
p356
tp357
Rp358
ag2
(g6
S'\xa7\x8b\xea\xbe'
p359
tp360
Rp361
ag2
(g6
S'\xce(\x89\xbe'
p362
tp363
Rp364
ag2
(g6
S'r\xd4\xfc>'
p365
tp366
Rp367
ag2
(g6
S'Po%\xbe'
p368
tp369
Rp370
ag2
(g6
S'\xb4y\xc6\xbe'
p371
tp372
Rp373
asI7
(lp374
g2
(g6
S'@\x88\xb8\xbe'
p375
tp376
Rp377
ag2
(g6
S'\x1eu\xc8\xbe'
p378
tp379
Rp380
ag2
(g6
S'B\xc8,\xbe'
p381
tp382
Rp383
ag2
(g6
S'u\xe8\xaa\xbe'
p384
tp385
Rp386
ag2
(g6
S'^/\x9c>'
p387
tp388
Rp389
ag2
(g6
S'0zK\xbc'
p390
tp391
Rp392
ag2
(g6
S'P\xb3\x86\xbe'
p393
tp394
Rp395
ag2
(g6
S'\x8a\xdcj>'
p396
tp397
Rp398
ag2
(g6
S'nsR>'
p399
tp400
Rp401
ag2
(g6
S'\x18L\x98\xbe'
p402
tp403
Rp404
ag2
(g6
S'\x98\xd0N\xbe'
p405
tp406
Rp407
ag2
(g6
S'\xea\x00%?'
p408
tp409
Rp410
ag2
(g6
S'D\x89\x94>'
p411
tp412
Rp413
ag2
(g6
S'Rm\x05\xbf'
p414
tp415
Rp416
ag2
(g6
S'\xbb*\xa1='
p417
tp418
Rp419
ag2
(g6
S'\x1a\x97\xd0\xbe'
p420
tp421
Rp422
ag2
(g6
S'\x10\x8a\xc4<'
p423
tp424
Rp425
ag2
(g6
S'\xf6\\\x06?'
p426
tp427
Rp428
ag2
(g6
S'\xaf\x85-\xbe'
p429
tp430
Rp431
ag2
(g6
S'\x0e>\xd1\xbe'
p432
tp433
Rp434
asI8
(lp435
g2
(g6
S'Pz\xb7\xbe'
p436
tp437
Rp438
ag2
(g6
S'\xe8\xef\x06\xbf'
p439
tp440
Rp441
ag2
(g6
S'\xb2vJ\xbe'
p442
tp443
Rp444
ag2
(g6
S'\x8eM\x93\xbe'
p445
tp446
Rp447
ag2
(g6
S'\xe1\xed\x83>'
p448
tp449
Rp450
ag2
(g6
S'.\xb9\xd4\xbc'
p451
tp452
Rp453
ag2
(g6
S'\x0f\x02t>'
p454
tp455
Rp456
ag2
(g6
S'\xaa\x13\x15?'
p457
tp458
Rp459
ag2
(g6
S'\xfaz">'
p460
tp461
Rp462
ag2
(g6
S'\x89<\x05\xbf'
p463
tp464
Rp465
ag2
(g6
S'X\xa9a\xbe'
p466
tp467
Rp468
ag2
(g6
S'u>\r?'
p469
tp470
Rp471
ag2
(g6
S'\x1f\xb6q>'
p472
tp473
Rp474
ag2
(g6
S'\xfb1d\xbe'
p475
tp476
Rp477
ag2
(g6
S'\xff \xa0>'
p478
tp479
Rp480
ag2
(g6
S'\xe8\xee\xd6\xbe'
p481
tp482
Rp483
ag2
(g6
S'\xbej\xa4\xbe'
p484
tp485
Rp486
ag2
(g6
S'M\xd1\x8f>'
p487
tp488
Rp489
ag2
(g6
S'!pH\xbe'
p490
tp491
Rp492
ag2
(g6
S'\x9f8\xe0\xbe'
p493
tp494
Rp495
asI9
(lp496
g2
(g6
S'\xb2O\x9e\xbe'
p497
tp498
Rp499
ag2
(g6
S'\x99w\x02\xbe'
p500
tp501
Rp502
ag2
(g6
S'\xf7\x99\xdb\xbd'
p503
tp504
Rp505
ag2
(g6
S'\x0eY\xdc\xbe'
p506
tp507
Rp508
ag2
(g6
S'\xac+\x8a\xbc'
p509
tp510
Rp511
ag2
(g6
S'U\xa9\x86\xbe'
p512
tp513
Rp514
ag2
(g6
S'\\\xd2\x9e\xbe'
p515
tp516
Rp517
ag2
(g6
S'\x8c%\x0c?'
p518
tp519
Rp520
ag2
(g6
S'F]\xa0>'
p521
tp522
Rp523
ag2
(g6
S'\xd8\x0f\x95\xbe'
p524
tp525
Rp526
ag2
(g6
S'\xd2~\xc3\xbe'
p527
tp528
Rp529
ag2
(g6
S'\x87\x81\x08?'
p530
tp531
Rp532
ag2
(g6
S'\xb3\xfa\x99>'
p533
tp534
Rp535
ag2
(g6
S'\x08\x92Z\xbe'
p536
tp537
Rp538
ag2
(g6
S'\x165\x91>'
p539
tp540
Rp541
ag2
(g6
S'\xbb\x9f"\xbf'
p542
tp543
Rp544
ag2
(g6
S'CF\x0e>'
p545
tp546
Rp547
ag2
(g6
S'?\x1f\xc9>'
p548
tp549
Rp550
ag2
(g6
S'\xdbi\x0e\xbe'
p551
tp552
Rp553
ag2
(g6
S'LF\xc4\xbe'
p554
tp555
Rp556
asI10
(lp557
g2
(g6
S'\xd2\xae}\xbe'
p558
tp559
Rp560
ag2
(g6
S'\x88X\x14\xbe'
p561
tp562
Rp563
ag2
(g6
S'Z\x88\xc0\xbe'
p564
tp565
Rp566
ag2
(g6
S'o\xde\x82\xbd'
p567
tp568
Rp569
ag2
(g6
S'In\x87>'
p570
tp571
Rp572
ag2
(g6
S'\x81\xed\xb1\xbe'
p573
tp574
Rp575
ag2
(g6
S'\xc0m\xd1\xbd'
p576
tp577
Rp578
ag2
(g6
S'\x90\xdd\xe6>'
p579
tp580
Rp581
ag2
(g6
S'\x08y\x96>'
p582
tp583
Rp584
ag2
(g6
S'\xbb\xe7\r\xbf'
p585
tp586
Rp587
ag2
(g6
S"&'q\xbe"
p588
tp589
Rp590
ag2
(g6
S'\xd4\xa7\x99>'
p591
tp592
Rp593
ag2
(g6
S'\xe8\x8e\xd2>'
p594
tp595
Rp596
ag2
(g6
S'x2\x1d\xbe'
p597
tp598
Rp599
ag2
(g6
S'nx\x9b='
p600
tp601
Rp602
ag2
(g6
S'\x9c`#\xbf'
p603
tp604
Rp605
ag2
(g6
S'\xa9\x05\x16\xbe'
p606
tp607
Rp608
ag2
(g6
S'>\x9c+?'
p609
tp610
Rp611
ag2
(g6
S'\xbd\x80\xf3\xbe'
p612
tp613
Rp614
ag2
(g6
S'\xc6T\x10\xbe'
p615
tp616
Rp617
asI11
(lp618
g2
(g6
S'\x07b\x0e\xbe'
p619
tp620
Rp621
ag2
(g6
S'\xba\xb7\xee\xbe'
p622
tp623
Rp624
ag2
(g6
S'\x96\x9f#\xbf'
p625
tp626
Rp627
ag2
(g6
S'\x01;\xb0\xbe'
p628
tp629
Rp630
ag2
(g6
S'^q\x01>'
p631
tp632
Rp633
ag2
(g6
S'\xc5\x86\xe7\xbe'
p634
tp635
Rp636
ag2
(g6
S'\x17^\x0f>'
p637
tp638
Rp639
ag2
(g6
S'\x94(d>'
p640
tp641
Rp642
ag2
(g6
S'[\x94\xfa>'
p643
tp644
Rp645
ag2
(g6
S'\xc2\xb4\xdc\xbe'
p646
tp647
Rp648
ag2
(g6
S'[8\xc4\xbe'
p649
tp650
Rp651
ag2
(g6
S'8\xfc\xbb>'
p652
tp653
Rp654
ag2
(g6
S'\xc0\xb6\xe6>'
p655
tp656
Rp657
ag2
(g6
S'd\x9b\\\xbd'
p658
tp659
Rp660
ag2
(g6
S'l\xbb\xb9\xbc'
p661
tp662
Rp663
ag2
(g6
S'x\xe0\x17\xbf'
p664
tp665
Rp666
ag2
(g6
S'\x9e?\xf6>'
p667
tp668
Rp669
ag2
(g6
S'\x06l\xbe>'
p670
tp671
Rp672
ag2
(g6
S'rc\xd4\xbe'
p673
tp674
Rp675
ag2
(g6
S'\xef\x1c\x88\xbe'
p676
tp677
Rp678
asI12
(lp679
g2
(g6
S'\x9fl\xae\xbe'
p680
tp681
Rp682
ag2
(g6
S'\x10\x06\x08\xbf'
p683
tp684
Rp685
ag2
(g6
S'#\xf7,\xbe'
p686
tp687
Rp688
ag2
(g6
S'\xfe5\xa1\xbe'
p689
tp690
Rp691
ag2
(g6
S'\x02\xa9l>'
p692
tp693
Rp694
ag2
(g6
S'\r^<\xbe'
p695
tp696
Rp697
ag2
(g6
S'\x96\x8c\x13\xbe'
p698
tp699
Rp700
ag2
(g6
S'(\xc1y>'
p701
tp702
Rp703
ag2
(g6
S'-\xa0\xb8>'
p704
tp705
Rp706
ag2
(g6
S'\xce\x87x\xbe'
p707
tp708
Rp709
ag2
(g6
S'\x8d\xde\xba\xbe'
p710
tp711
Rp712
ag2
(g6
S'U\xf1\xf8>'
p713
tp714
Rp715
ag2
(g6
S'E\x81\xe0>'
p716
tp717
Rp718
ag2
(g6
S'\x88\xf5\xf2\xbd'
p719
tp720
Rp721
ag2
(g6
S'\x98\x07#>'
p722
tp723
Rp724
ag2
(g6
S'\xeer\x98\xbe'
p725
tp726
Rp727
ag2
(g6
S'\xe67\x83\xbe'
p728
tp729
Rp730
ag2
(g6
S'\xa2\xd2\xcb>'
p731
tp732
Rp733
ag2
(g6
S'\xd2!K\xbe'
p734
tp735
Rp736
ag2
(g6
S'\x14\x10\x14\xbf'
p737
tp738
Rp739
asI13
(lp740
g2
(g6
S'\x1b\xf7R\xbe'
p741
tp742
Rp743
ag2
(g6
S'\xfe\x05I\xbe'
p744
tp745
Rp746
ag2
(g6
S'\x1c\x04\xa6\xbe'
p747
tp748
Rp749
ag2
(g6
S'd>\xc2\xbe'
p750
tp751
Rp752
ag2
(g6
S'a\xf2\xc0='
p753
tp754
Rp755
ag2
(g6
S']\x9cP\xbe'
p756
tp757
Rp758
ag2
(g6
S'D\x13j\xbc'
p759
tp760
Rp761
ag2
(g6
S'\xc23~>'
p762
tp763
Rp764
ag2
(g6
S'\xc1\xa2\x10?'
p765
tp766
Rp767
ag2
(g6
S's-%\xbf'
p768
tp769
Rp770
ag2
(g6
S'\x12\xf8\xd1\xbe'
p771
tp772
Rp773
ag2
(g6
S'.\xd9\x87>'
p774
tp775
Rp776
ag2
(g6
S'O\x94\xc2>'
p777
tp778
Rp779
ag2
(g6
S'\x17[\xef\xbe'
p780
tp781
Rp782
ag2
(g6
S'\x92=\xf4='
p783
tp784
Rp785
ag2
(g6
S'\xbc\x8f\x11\xbf'
p786
tp787
Rp788
ag2
(g6
S'\x9b\xa7u='
p789
tp790
Rp791
ag2
(g6
S'`\x10\xf9>'
p792
tp793
Rp794
ag2
(g6
S',"\x1b\xbe'
p795
tp796
Rp797
ag2
(g6
S'\xd0\x95\xa6\xbe'
p798
tp799
Rp800
asI14
(lp801
g2
(g6
S'\n\x95\x86\xbe'
p802
tp803
Rp804
ag2
(g6
S'c!\x17\xbe'
p805
tp806
Rp807
ag2
(g6
S'p\x1e\x91\xbe'
p808
tp809
Rp810
ag2
(g6
S':\xec\xd1\xbe'
p811
tp812
Rp813
ag2
(g6
S'\xfb\xdc\x01?'
p814
tp815
Rp816
ag2
(g6
S'\xb2z\x80\xbe'
p817
tp818
Rp819
ag2
(g6
S'\xcf-\xea\xbe'
p820
tp821
Rp822
ag2
(g6
S'\xa4^\x1a?'
p823
tp824
Rp825
ag2
(g6
S'\x1b\x10\xbd='
p826
tp827
Rp828
ag2
(g6
S'\xc2\xa5\x0e\xbe'
p829
tp830
Rp831
ag2
(g6
S'\xb1D@\xbe'
p832
tp833
Rp834
ag2
(g6
S'\xd5\x00$?'
p835
tp836
Rp837
ag2
(g6
S'vE\xb4>'
p838
tp839
Rp840
ag2
(g6
S'\x0cr\xa7\xbe'
p841
tp842
Rp843
ag2
(g6
S'+\xe6*='
p844
tp845
Rp846
ag2
(g6
S'\xeeQ\xd8\xbe'
p847
tp848
Rp849
ag2
(g6
S'\x10i\xf0='
p850
tp851
Rp852
ag2
(g6
S'\xadl\xe0>'
p853
tp854
Rp855
ag2
(g6
S'w\xa3\xe7\xbe'
p856
tp857
Rp858
ag2
(g6
S'-\xac\x07\xbe'
p859
tp860
Rp861
asI15
(lp862
g2
(g6
S'Tt\x86\xbe'
p863
tp864
Rp865
ag2
(g6
S'X\x1a\xc0\xbe'
p866
tp867
Rp868
ag2
(g6
S':tR\xbe'
p869
tp870
Rp871
ag2
(g6
S'\r\xa2\xb9\xbe'
p872
tp873
Rp874
ag2
(g6
S'"~\xdb='
p875
tp876
Rp877
ag2
(g6
S'\x96\xbd\x85\xbe'
p878
tp879
Rp880
ag2
(g6
S'\xec\xc3\x99\xbe'
p881
tp882
Rp883
ag2
(g6
S'\x82\xc1\x0b?'
p884
tp885
Rp886
ag2
(g6
S'\xee\xbcz>'
p887
tp888
Rp889
ag2
(g6
S'\x82\x0b\xf6\xbe'
p890
tp891
Rp892
ag2
(g6
S'\x84\xe3n\xbe'
p893
tp894
Rp895
ag2
(g6
S'Z\x0c\xfb='
p896
tp897
Rp898
ag2
(g6
S')U\xb1>'
p899
tp900
Rp901
ag2
(g6
S'\x01\x01D\xbe'
p902
tp903
Rp904
ag2
(g6
S'|#\xaa>'
p905
tp906
Rp907
ag2
(g6
S'R\xf1\x8d\xbe'
p908
tp909
Rp910
ag2
(g6
S'\xb8\xbfr<'
p911
tp912
Rp913
ag2
(g6
S'\xb0\xca\xe3>'
p914
tp915
Rp916
ag2
(g6
S'\t4=\xbe'
p917
tp918
Rp919
ag2
(g6
S'\x89\xe5\xdf\xbe'
p920
tp921
Rp922
asI16
(lp923
g2
(g6
S'69\xbb\xbe'
p924
tp925
Rp926
ag2
(g6
S'\xf89[\xbe'
p927
tp928
Rp929
ag2
(g6
S'\xe9\xc8\xb0\xbe'
p930
tp931
Rp932
ag2
(g6
S'\xe8\x95\xe7\xbe'
p933
tp934
Rp935
ag2
(g6
S'\xe5\x0e;>'
p936
tp937
Rp938
ag2
(g6
S'\xa0\x899\xbe'
p939
tp940
Rp941
ag2
(g6
S'\x9f\x83\x04\xbf'
p942
tp943
Rp944
ag2
(g6
S'\xa4\x01\xfb>'
p945
tp946
Rp947
ag2
(g6
S'c\xda.>'
p948
tp949
Rp950
ag2
(g6
S'C\xd8\xa8\xbe'
p951
tp952
Rp953
ag2
(g6
S'\xe3\x07\x99\xbe'
p954
tp955
Rp956
ag2
(g6
S'\xdbuo>'
p957
tp958
Rp959
ag2
(g6
S'\xd4\xda\xca>'
p960
tp961
Rp962
ag2
(g6
S')$\xeb\xbd'
p963
tp964
Rp965
ag2
(g6
S'^\xab\xb3>'
p966
tp967
Rp968
ag2
(g6
S'\xe8\xb3\xb0\xbe'
p969
tp970
Rp971
ag2
(g6
S'L\x9a\xd0\xbd'
p972
tp973
Rp974
ag2
(g6
S'\x9c;\x05?'
p975
tp976
Rp977
ag2
(g6
S'}^\x00\xbe'
p978
tp979
Rp980
ag2
(g6
S'\xe8\xc3\x95\xbe'
p981
tp982
Rp983
asI17
(lp984
g2
(g6
S'<\xca\x9b\xbe'
p985
tp986
Rp987
ag2
(g6
S'l>\xb3\xbe'
p988
tp989
Rp990
ag2
(g6
S'\xf9\xc5\x12\xbf'
p991
tp992
Rp993
ag2
(g6
S'\xbb\xfbO\xbe'
p994
tp995
Rp996
ag2
(g6
S'\xc2\t\x06\xbe'
p997
tp998
Rp999
ag2
(g6
S'\xd2Ma\xbe'
p1000
tp1001
Rp1002
ag2
(g6
S'\xa8\xda\xc1;'
p1003
tp1004
Rp1005
ag2
(g6
S'\xae.\x17>'
p1006
tp1007
Rp1008
ag2
(g6
S'<\x87s>'
p1009
tp1010
Rp1011
ag2
(g6
S'\x90\x84\xae\xbe'
p1012
tp1013
Rp1014
ag2
(g6
S'z\x80r\xbe'
p1015
tp1016
Rp1017
ag2
(g6
S'\x8f\xad\x94>'
p1018
tp1019
Rp1020
ag2
(g6
S'!\x02\x00?'
p1021
tp1022
Rp1023
ag2
(g6
S'1\xa9\x98\xbe'
p1024
tp1025
Rp1026
ag2
(g6
S'W\x96\x8a\xbd'
p1027
tp1028
Rp1029
ag2
(g6
S'\xa0H,\xbf'
p1030
tp1031
Rp1032
ag2
(g6
S'\xe2\xf9j>'
p1033
tp1034
Rp1035
ag2
(g6
S'\xb4\x93$?'
p1036
tp1037
Rp1038
ag2
(g6
S'\xf3$\xce\xbe'
p1039
tp1040
Rp1041
ag2
(g6
S'\xb2\x8e\xd7\xbe'
p1042
tp1043
Rp1044
asI18
(lp1045
g2
(g6
S'0E\x0f\xbe'
p1046
tp1047
Rp1048
ag2
(g6
S'\x05m\xdf\xbe'
p1049
tp1050
Rp1051
ag2
(g6
S'`%\xa3<'
p1052
tp1053
Rp1054
ag2
(g6
S'\xc2P\x15\xbe'
p1055
tp1056
Rp1057
ag2
(g6
S'\xd4\xee?>'
p1058
tp1059
Rp1060
ag2
(g6
S'\xdc\x0f\x8b='
p1061
tp1062
Rp1063
ag2
(g6
S'\xc2"\xdb\xbd'
p1064
tp1065
Rp1066
ag2
(g6
S'\xfa\xd1y>'
p1067
tp1068
Rp1069
ag2
(g6
S' a\xad>'
p1070
tp1071
Rp1072
ag2
(g6
S'`\xf0\x0b\xbf'
p1073
tp1074
Rp1075
ag2
(g6
S'#u\x83\xbe'
p1076
tp1077
Rp1078
ag2
(g6
S'S\x94\n?'
p1079
tp1080
Rp1081
ag2
(g6
S'\x9d\x1d\xb9>'
p1082
tp1083
Rp1084
ag2
(g6
S'\xca6\x85\xbe'
p1085
tp1086
Rp1087
ag2
(g6
S'Z\xef\x02>'
p1088
tp1089
Rp1090
ag2
(g6
S'XI\x08\xbf'
p1091
tp1092
Rp1093
ag2
(g6
S'\xf8\xfc\xcd\xbe'
p1094
tp1095
Rp1096
ag2
(g6
S'\xb7\xab\x04?'
p1097
tp1098
Rp1099
ag2
(g6
S'\xcd\x99\x06\xbf'
p1100
tp1101
Rp1102
ag2
(g6
S'\xd2\xee\n\xbf'
p1103
tp1104
Rp1105
asI19
(lp1106
g2
(g6
S'\x9dw\x87\xbe'
p1107
tp1108
Rp1109
ag2
(g6
S'\t\\A\xbe'
p1110
tp1111
Rp1112
ag2
(g6
S'\xa4\x13.\xbd'
p1113
tp1114
Rp1115
ag2
(g6
S'$Y\x7f\xbe'
p1116
tp1117
Rp1118
ag2
(g6
S'\xb2e\xa3>'
p1119
tp1120
Rp1121
ag2
(g6
S's\x08\xb6\xbd'
p1122
tp1123
Rp1124
ag2
(g6
S'\xd4\x87\xa6='
p1125
tp1126
Rp1127
ag2
(g6
S'\xb6\xb60>'
p1128
tp1129
Rp1130
ag2
(g6
S'GK\xc3>'
p1131
tp1132
Rp1133
ag2
(g6
S'\x85\xa6\xc7\xbe'
p1134
tp1135
Rp1136
ag2
(g6
S'\x8a\x91\xe5\xbe'
p1137
tp1138
Rp1139
ag2
(g6
S'c\x84\xfb>'
p1140
tp1141
Rp1142
ag2
(g6
S'2O\x18?'
p1143
tp1144
Rp1145
ag2
(g6
S'\xf2\x9f\xbe\xbe'
p1146
tp1147
Rp1148
ag2
(g6
S'z\xbf\x05>'
p1149
tp1150
Rp1151
ag2
(g6
S'g\xa5\x0f\xbf'
p1152
tp1153
Rp1154
ag2
(g6
S'\x068\x1e>'
p1155
tp1156
Rp1157
ag2
(g6
S'\xd7Q\x14?'
p1158
tp1159
Rp1160
ag2
(g6
S'x\xcf\xd9\xbd'
p1161
tp1162
Rp1163
ag2
(g6
S'\x94\xb7\xdb\xbe'
p1164
tp1165
Rp1166
asI20
(lp1167
g2
(g6
S'K\xaf\xed\xbe'
p1168
tp1169
Rp1170
ag2
(g6
S'V8\xbc\xbe'
p1171
tp1172
Rp1173
ag2
(g6
S'\xb3X\xa5\xbd'
p1174
tp1175
Rp1176
ag2
(g6
S'=\xc5\x94\xbe'
p1177
tp1178
Rp1179
ag2
(g6
S'\x1c_d>'
p1180
tp1181
Rp1182
ag2
(g6
S'\x81vz\xbe'
p1183
tp1184
Rp1185
ag2
(g6
S'\x83[v\xbe'
p1186
tp1187
Rp1188
ag2
(g6
S'\x87\xc6\x11?'
p1189
tp1190
Rp1191
ag2
(g6
S'\xd0\xa7\x19>'
p1192
tp1193
Rp1194
ag2
(g6
S'j\xb1\xb0\xbe'
p1195
tp1196
Rp1197
ag2
(g6
S't\x81\xab\xbe'
p1198
tp1199
Rp1200
ag2
(g6
S'/\xe4\xa4>'
p1201
tp1202
Rp1203
ag2
(g6
S'p\xbb\xd9>'
p1204
tp1205
Rp1206
ag2
(g6
S'\xac\xcc\x9c\xbe'
p1207
tp1208
Rp1209
ag2
(g6
S'\xe2rs>'
p1210
tp1211
Rp1212
ag2
(g6
S'\x8d\xef\xc8\xbe'
p1213
tp1214
Rp1215
ag2
(g6
S'\xfe\xf7P>'
p1216
tp1217
Rp1218
ag2
(g6
S'\x96\x03\x03?'
p1219
tp1220
Rp1221
ag2
(g6
S'3\xff\x97\xbe'
p1222
tp1223
Rp1224
ag2
(g6
S'\xe4\x98\x88\xbe'
p1225
tp1226
Rp1227
asI21
(lp1228
g2
(g6
S'\xc1\x9e\xe0\xbe'
p1229
tp1230
Rp1231
ag2
(g6
S'\xa1\xad\xb0\xbe'
p1232
tp1233
Rp1234
ag2
(g6
S'\xee\n\x02\xbf'
p1235
tp1236
Rp1237
ag2
(g6
S'\x96\x97\xac\xbe'
p1238
tp1239
Rp1240
ag2
(g6
S'F\xbeH>'
p1241
tp1242
Rp1243
ag2
(g6
S'\xe6\x01]\xbe'
p1244
tp1245
Rp1246
ag2
(g6
S't\xe9*\xbe'
p1247
tp1248
Rp1249
ag2
(g6
S'\x85\x0f`>'
p1250
tp1251
Rp1252
ag2
(g6
S'v+\xfb>'
p1253
tp1254
Rp1255
ag2
(g6
S'\n\xb1b\xbe'
p1256
tp1257
Rp1258
ag2
(g6
S'\xa2\xacq\xbe'
p1259
tp1260
Rp1261
ag2
(g6
S'~\x82\x8f>'
p1262
tp1263
Rp1264
ag2
(g6
S'\xe4\xbf\xd2>'
p1265
tp1266
Rp1267
ag2
(g6
S'D\xe5\x90\xbe'
p1268
tp1269
Rp1270
ag2
(g6
S'V7\xa4>'
p1271
tp1272
Rp1273
ag2
(g6
S'\x04\x18f\xbe'
p1274
tp1275
Rp1276
ag2
(g6
S'\xe3W\xda='
p1277
tp1278
Rp1279
ag2
(g6
S'\xeaU\x07?'
p1280
tp1281
Rp1282
ag2
(g6
S'V9\x8c\xbe'
p1283
tp1284
Rp1285
ag2
(g6
S'w\xf9\x8e\xbe'
p1286
tp1287
Rp1288
asI22
(lp1289
g2
(g6
S'\xb8B\xc1\xbe'
p1290
tp1291
Rp1292
ag2
(g6
S'\xe0\x95\xb0\xbe'
p1293
tp1294
Rp1295
ag2
(g6
S'\x1e  \xbf'
p1296
tp1297
Rp1298
ag2
(g6
S'\x9cR\xcc\xbe'
p1299
tp1300
Rp1301
ag2
(g6
S'4,X>'
p1302
tp1303
Rp1304
ag2
(g6
S'\xcf\xce\xdf\xbe'
p1305
tp1306
Rp1307
ag2
(g6
S'/\xcb0\xbe'
p1308
tp1309
Rp1310
ag2
(g6
S'\xdaYS>'
p1311
tp1312
Rp1313
ag2
(g6
S'\x9ev\x88>'
p1314
tp1315
Rp1316
ag2
(g6
S'D\xc7\xaa\xbe'
p1317
tp1318
Rp1319
ag2
(g6
S'\x08VV\xbe'
p1320
tp1321
Rp1322
ag2
(g6
S'\xd6\x90}>'
p1323
tp1324
Rp1325
ag2
(g6
S'.\x93\x01?'
p1326
tp1327
Rp1328
ag2
(g6
S'\xa8j\x98\xbe'
p1329
tp1330
Rp1331
ag2
(g6
S'n\x83\xb9<'
p1332
tp1333
Rp1334
ag2
(g6
S':\xc2\xf8\xbe'
p1335
tp1336
Rp1337
ag2
(g6
S'\xb2J\x8f>'
p1338
tp1339
Rp1340
ag2
(g6
S'\x10N\xae>'
p1341
tp1342
Rp1343
ag2
(g6
S'\xce\xb4q\xbe'
p1344
tp1345
Rp1346
ag2
(g6
S'\x9a\xd2\xdd\xbe'
p1347
tp1348
Rp1349
asI23
(lp1350
g2
(g6
S'Z\xc9\xc4\xbe'
p1351
tp1352
Rp1353
ag2
(g6
S'\xad\x91\xda\xbe'
p1354
tp1355
Rp1356
ag2
(g6
S',\xd4\x9d\xbe'
p1357
tp1358
Rp1359
ag2
(g6
S'\xf6\x967\xbe'
p1360
tp1361
Rp1362
ag2
(g6
S'\xed\x06d>'
p1363
tp1364
Rp1365
ag2
(g6
S'=vy\xbe'
p1366
tp1367
Rp1368
ag2
(g6
S'K\xe2O\xbe'
p1369
tp1370
Rp1371
ag2
(g6
S'\xe5\x96\x8f>'
p1372
tp1373
Rp1374
ag2
(g6
S'\x82\x0c\xb9='
p1375
tp1376
Rp1377
ag2
(g6
S'\xf2Q\xcd\xbe'
p1378
tp1379
Rp1380
ag2
(g6
S'\x0c\x96\xa7\xbe'
p1381
tp1382
Rp1383
ag2
(g6
S'\xbc\xa7\xca>'
p1384
tp1385
Rp1386
ag2
(g6
S'\xe4\xea\x99>'
p1387
tp1388
Rp1389
ag2
(g6
S"'I6\xbe"
p1390
tp1391
Rp1392
ag2
(g6
S'\x98\x1e1>'
p1393
tp1394
Rp1395
ag2
(g6
S'\x05\x7f\xb3\xbe'
p1396
tp1397
Rp1398
ag2
(g6
S'\xc4%\xe8\xbd'
p1399
tp1400
Rp1401
ag2
(g6
S'\xc5 \x12?'
p1402
tp1403
Rp1404
ag2
(g6
S'!h\x06\xbf'
p1405
tp1406
Rp1407
ag2
(g6
S'\x0e\x93\xc3\xbe'
p1408
tp1409
Rp1410
asI24
(lp1411
g2
(g6
S'\xb0\xd5\xf4\xbd'
p1412
tp1413
Rp1414
ag2
(g6
S'B\xa15\xbe'
p1415
tp1416
Rp1417
ag2
(g6
S'\x00\x15\xaa\xbd'
p1418
tp1419
Rp1420
ag2
(g6
S'\x18[M\xbe'
p1421
tp1422
Rp1423
ag2
(g6
S'\xb0CR\xbc'
p1424
tp1425
Rp1426
ag2
(g6
S'\x19~X\xbd'
p1427
tp1428
Rp1429
ag2
(g6
S'],\x0f='
p1430
tp1431
Rp1432
ag2
(g6
S'\xde\x1c\x10>'
p1433
tp1434
Rp1435
ag2
(g6
S':\xf5{\xbd'
p1436
tp1437
Rp1438
ag2
(g6
S'\xc1\x19\xa1\xbe'
p1439
tp1440
Rp1441
ag2
(g6
S':\xa4\xb8\xbe'
p1442
tp1443
Rp1444
ag2
(g6
S'\xe4\x0b\x80>'
p1445
tp1446
Rp1447
ag2
(g6
S'<\xb2t>'
p1448
tp1449
Rp1450
ag2
(g6
S'4\xed\xe3<'
p1451
tp1452
Rp1453
ag2
(g6
S'\xbb&\x85\xbd'
p1454
tp1455
Rp1456
ag2
(g6
S'\x92\x81+\xbe'
p1457
tp1458
Rp1459
ag2
(g6
S'\xdc\x95*='
p1460
tp1461
Rp1462
ag2
(g6
S'@2\x97>'
p1463
tp1464
Rp1465
ag2
(g6
S'\xbdw\x99\xbe'
p1466
tp1467
Rp1468
ag2
(g6
S'\xde\x9d\x98\xbe'
p1469
tp1470
Rp1471
asI25
(lp1472
g2
(g6
S'\xa9IW\xbe'
p1473
tp1474
Rp1475
ag2
(g6
S'a\xa7\xa3\xbe'
p1476
tp1477
Rp1478
ag2
(g6
S'Vw\t\xbf'
p1479
tp1480
Rp1481
ag2
(g6
S'\x9c\x81\xd7\xbe'
p1482
tp1483
Rp1484
ag2
(g6
S'\x04\x99\x04>'
p1485
tp1486
Rp1487
ag2
(g6
S'\xc8\xa4\xbf\xbe'
p1488
tp1489
Rp1490
ag2
(g6
S'\xf5\t\x00\xbe'
p1491
tp1492
Rp1493
ag2
(g6
S'|\xaa\xc1>'
p1494
tp1495
Rp1496
ag2
(g6
S'\xd6\xd0`>'
p1497
tp1498
Rp1499
ag2
(g6
S'k\xcc\xe4\xbe'
p1500
tp1501
Rp1502
ag2
(g6
S'\xf3D\xc5\xbe'
p1503
tp1504
Rp1505
ag2
(g6
S'^\xddQ>'
p1506
tp1507
Rp1508
ag2
(g6
S'\xbag\x9b>'
p1509
tp1510
Rp1511
ag2
(g6
S'G\xf6Z\xbe'
p1512
tp1513
Rp1514
ag2
(g6
S'j\xe0p>'
p1515
tp1516
Rp1517
ag2
(g6
S'\xe4\xec\xf3\xbe'
p1518
tp1519
Rp1520
ag2
(g6
S'2\x93\x91>'
p1521
tp1522
Rp1523
ag2
(g6
S'H\xe8\xf7>'
p1524
tp1525
Rp1526
ag2
(g6
S'\x90\xf0\x0f\xbe'
p1527
tp1528
Rp1529
ag2
(g6
S'C\xc8\x86\xbe'
p1530
tp1531
Rp1532
asI26
(lp1533
g2
(g6
S'p\xac\xc5\xbe'
p1534
tp1535
Rp1536
ag2
(g6
S'\x8c\x0c\x8e\xbe'
p1537
tp1538
Rp1539
ag2
(g6
S'\xe4\xa6\x9d\xbc'
p1540
tp1541
Rp1542
ag2
(g6
S'\x98|\n\xbf'
p1543
tp1544
Rp1545
ag2
(g6
S'\x1bdZ>'
p1546
tp1547
Rp1548
ag2
(g6
S'v\xc5\x8b\xbe'
p1549
tp1550
Rp1551
ag2
(g6
S'\x97G\x94\xbe'
p1552
tp1553
Rp1554
ag2
(g6
S'Z_\x01?'
p1555
tp1556
Rp1557
ag2
(g6
S'C\xf7\x83>'
p1558
tp1559
Rp1560
ag2
(g6
S'P\xf4\xdf\xbe'
p1561
tp1562
Rp1563
ag2
(g6
S'~\xcc*\xbe'
p1564
tp1565
Rp1566
ag2
(g6
S'\x02W\x9b>'
p1567
tp1568
Rp1569
ag2
(g6
S'\x9a\t\xb1>'
p1570
tp1571
Rp1572
ag2
(g6
S'\x05\x00\xe7\xbe'
p1573
tp1574
Rp1575
ag2
(g6
S'\xf6\xab\xa2>'
p1576
tp1577
Rp1578
ag2
(g6
S'\x90M\x9d\xbe'
p1579
tp1580
Rp1581
ag2
(g6
S'\xec/6>'
p1582
tp1583
Rp1584
ag2
(g6
S'\xe7\xf2\xf4>'
p1585
tp1586
Rp1587
ag2
(g6
S'\xc4/\x1d\xbe'
p1588
tp1589
Rp1590
ag2
(g6
S'\xee\xce\x0b\xbf'
p1591
tp1592
Rp1593
asI27
(lp1594
g2
(g6
S'\x98\xc2\x1b\xbf'
p1595
tp1596
Rp1597
ag2
(g6
S'\xb9\x10\x16\xbe'
p1598
tp1599
Rp1600
ag2
(g6
S'\x00\x8d\xe8\xbc'
p1601
tp1602
Rp1603
ag2
(g6
S'tD\xdc\xbe'
p1604
tp1605
Rp1606
ag2
(g6
S'\x08M\xed>'
p1607
tp1608
Rp1609
ag2
(g6
S'\xc4\xe8e<'
p1610
tp1611
Rp1612
ag2
(g6
S'z\x02\xe4\xbd'
p1613
tp1614
Rp1615
ag2
(g6
S'\xc4A\x0e?'
p1616
tp1617
Rp1618
ag2
(g6
S'\xc0[\x82>'
p1619
tp1620
Rp1621
ag2
(g6
S'\xa6\xbd\x08\xbf'
p1622
tp1623
Rp1624
ag2
(g6
S'\xb4X\xfe\xbd'
p1625
tp1626
Rp1627
ag2
(g6
S'\xa5^\xeb>'
p1628
tp1629
Rp1630
ag2
(g6
S'\xd67;>'
p1631
tp1632
Rp1633
ag2
(g6
S'r\xb3\x91\xbe'
p1634
tp1635
Rp1636
ag2
(g6
S'8<5>'
p1637
tp1638
Rp1639
ag2
(g6
S'\x8b\xc5\x93\xbe'
p1640
tp1641
Rp1642
ag2
(g6
S'\xb6\x8c\xe5>'
p1643
tp1644
Rp1645
ag2
(g6
S'\xeb\xcb\x1e?'
p1646
tp1647
Rp1648
ag2
(g6
S'\x1am\x99\xbe'
p1649
tp1650
Rp1651
ag2
(g6
S'4@\xf1\xbe'
p1652
tp1653
Rp1654
asI28
(lp1655
g2
(g6
S'*\xaf\xab\xbe'
p1656
tp1657
Rp1658
ag2
(g6
S'\xcc3\xc9\xbe'
p1659
tp1660
Rp1661
ag2
(g6
S'\xcc\xcb\xd0\xbd'
p1662
tp1663
Rp1664
ag2
(g6
S'\xf4\x18\xa6\xbe'
p1665
tp1666
Rp1667
ag2
(g6
S'\x9e\xc2\xde>'
p1668
tp1669
Rp1670
ag2
(g6
S'\x85\xd2\x10\xbe'
p1671
tp1672
Rp1673
ag2
(g6
S'\xf5.\xb4\xbe'
p1674
tp1675
Rp1676
ag2
(g6
S'\xcaBt>'
p1677
tp1678
Rp1679
ag2
(g6
S':[0>'
p1680
tp1681
Rp1682
ag2
(g6
S' \x02\xfd\xbe'
p1683
tp1684
Rp1685
ag2
(g6
S'\xfc\xf0\xd5\xbe'
p1686
tp1687
Rp1688
ag2
(g6
S'<\xc5\xfd>'
p1689
tp1690
Rp1691
ag2
(g6
S'=\xe6\xbf>'
p1692
tp1693
Rp1694
ag2
(g6
S'\x83a\x1a\xbe'
p1695
tp1696
Rp1697
ag2
(g6
S'0GX>'
p1698
tp1699
Rp1700
ag2
(g6
S'\x10e\xfb\xbe'
p1701
tp1702
Rp1703
ag2
(g6
S'\xfd \x10\xbe'
p1704
tp1705
Rp1706
ag2
(g6
S'\x08\x1f\x95>'
p1707
tp1708
Rp1709
ag2
(g6
S'IN\xc9\xbe'
p1710
tp1711
Rp1712
ag2
(g6
S"'\x80\x8d\xbe"
p1713
tp1714
Rp1715
asI29
(lp1716
g2
(g6
S'x\xbc\x9c\xbe'
p1717
tp1718
Rp1719
ag2
(g6
S'\x94D\xb9\xbe'
p1720
tp1721
Rp1722
ag2
(g6
S'\x1f\xeb\x9b\xbe'
p1723
tp1724
Rp1725
ag2
(g6
S'\x0c\xc9\xab\xbe'
p1726
tp1727
Rp1728
ag2
(g6
S'\xf3\x7f\xea>'
p1729
tp1730
Rp1731
ag2
(g6
S'g\xb6S\xbe'
p1732
tp1733
Rp1734
ag2
(g6
S'"\x9a\x8b\xbe'
p1735
tp1736
Rp1737
ag2
(g6
S'\xed\x02\xcc='
p1738
tp1739
Rp1740
ag2
(g6
S"x\xbc'>"
p1741
tp1742
Rp1743
ag2
(g6
S'\xa8\xb1\xc1\xbe'
p1744
tp1745
Rp1746
ag2
(g6
S'\xd5`\xd1\xbe'
p1747
tp1748
Rp1749
ag2
(g6
S'\x86\xb7\xcd>'
p1750
tp1751
Rp1752
ag2
(g6
S'j\x84\xad>'
p1753
tp1754
Rp1755
ag2
(g6
S'\xe6\xce\xe1\xbe'
p1756
tp1757
Rp1758
ag2
(g6
S'\x85\x152>'
p1759
tp1760
Rp1761
ag2
(g6
S'\xa9\x19\x87\xbe'
p1762
tp1763
Rp1764
ag2
(g6
S'p\x81e\xbc'
p1765
tp1766
Rp1767
ag2
(g6
S'^X\x90>'
p1768
tp1769
Rp1770
ag2
(g6
S'@6\xac\xbe'
p1771
tp1772
Rp1773
ag2
(g6
S'l1r\xbe'
p1774
tp1775
Rp1776
asI30
(lp1777
g2
(g6
S'\xc7\x9c\x83\xbe'
p1778
tp1779
Rp1780
ag2
(g6
S'\x10Nl\xbe'
p1781
tp1782
Rp1783
ag2
(g6
S'\xf6\xa5%\xbd'
p1784
tp1785
Rp1786
ag2
(g6
S'\xe6\xcf\xac\xbe'
p1787
tp1788
Rp1789
ag2
(g6
S'\xca\xc5\xd3>'
p1790
tp1791
Rp1792
ag2
(g6
S'{\xc4\xa1\xbe'
p1793
tp1794
Rp1795
ag2
(g6
S'\xf8W\x97\xbe'
p1796
tp1797
Rp1798
ag2
(g6
S'\xf4)\xd4>'
p1799
tp1800
Rp1801
ag2
(g6
S'\xa2$<>'
p1802
tp1803
Rp1804
ag2
(g6
S'\xcd\xf4\x0c\xbf'
p1805
tp1806
Rp1807
ag2
(g6
S'\x83R\x93\xbe'
p1808
tp1809
Rp1810
ag2
(g6
S'\xb9\xa0b>'
p1811
tp1812
Rp1813
ag2
(g6
S'ck\xfa>'
p1814
tp1815
Rp1816
ag2
(g6
S'\xea\x08\xa8\xbe'
p1817
tp1818
Rp1819
ag2
(g6
S'\xe1\xe3\xc1>'
p1820
tp1821
Rp1822
ag2
(g6
S'E;\x8d\xbe'
p1823
tp1824
Rp1825
ag2
(g6
S'T\x87\xda>'
p1826
tp1827
Rp1828
ag2
(g6
S'$\xad\x14?'
p1829
tp1830
Rp1831
ag2
(g6
S'\xc8\xa6\x8e\xbe'
p1832
tp1833
Rp1834
ag2
(g6
S'\xcf\x04\xbd\xbe'
p1835
tp1836
Rp1837
asI31
(lp1838
g2
(g6
S'hc\xca\xbe'
p1839
tp1840
Rp1841
ag2
(g6
S'\xe08L\xbe'
p1842
tp1843
Rp1844
ag2
(g6
S'\x034\x97\xbd'
p1845
tp1846
Rp1847
ag2
(g6
S'c~\xc1\xbe'
p1848
tp1849
Rp1850
ag2
(g6
S'<G\x96>'
p1851
tp1852
Rp1853
ag2
(g6
S'<}\xc9\xbe'
p1854
tp1855
Rp1856
ag2
(g6
S'\x06Lv\xbe'
p1857
tp1858
Rp1859
ag2
(g6
S'\x88a\x1c?'
p1860
tp1861
Rp1862
ag2
(g6
S'k\x14(>'
p1863
tp1864
Rp1865
ag2
(g6
S'\xf4\xcb\xf8\xbe'
p1866
tp1867
Rp1868
ag2
(g6
S'\x0f\xf4\x97\xbe'
p1869
tp1870
Rp1871
ag2
(g6
S'\xce\xde\xc6>'
p1872
tp1873
Rp1874
ag2
(g6
S'|\xe4\xf8>'
p1875
tp1876
Rp1877
ag2
(g6
S'\x90\xa2\x0e\xbe'
p1878
tp1879
Rp1880
ag2
(g6
S'//a='
p1881
tp1882
Rp1883
ag2
(g6
S'\x0e?\xba\xbe'
p1884
tp1885
Rp1886
ag2
(g6
S'\x90\xc2$='
p1887
tp1888
Rp1889
ag2
(g6
S'b\x16\xc5>'
p1890
tp1891
Rp1892
ag2
(g6
S'\xe6\x98K\xbe'
p1893
tp1894
Rp1895
ag2
(g6
S'\xcds\xa2\xbe'
p1896
tp1897
Rp1898
asI32
(lp1899
g2
(g6
S'\xf5 \xe9\xbe'
p1900
tp1901
Rp1902
ag2
(g6
S'\xe0\xbd\x8b\xbe'
p1903
tp1904
Rp1905
ag2
(g6
S'$\x9e\xc8\xbe'
p1906
tp1907
Rp1908
ag2
(g6
S'\x14`\xc0\xbe'
p1909
tp1910
Rp1911
ag2
(g6
S'\xdd\xa6\xd3>'
p1912
tp1913
Rp1914
ag2
(g6
S'\x0b\xdew\xbe'
p1915
tp1916
Rp1917
ag2
(g6
S'\x9f4h\xbe'
p1918
tp1919
Rp1920
ag2
(g6
S'\xf5\xcef>'
p1921
tp1922
Rp1923
ag2
(g6
S'\xcb\xa2\x84>'
p1924
tp1925
Rp1926
ag2
(g6
S'\x12\x06\xa8\xbe'
p1927
tp1928
Rp1929
ag2
(g6
S'\x16\x9d6\xbe'
p1930
tp1931
Rp1932
ag2
(g6
S'\x86\xac\xb2>'
p1933
tp1934
Rp1935
ag2
(g6
S'\xea\x91\x8c>'
p1936
tp1937
Rp1938
ag2
(g6
S'd\x8d+\xbe'
p1939
tp1940
Rp1941
ag2
(g6
S'\x82q\xf2='
p1942
tp1943
Rp1944
ag2
(g6
S'\xc2\xb9\xec\xbe'
p1945
tp1946
Rp1947
ag2
(g6
S'\xb0\x8c\xc8;'
p1948
tp1949
Rp1950
ag2
(g6
S'\x94Z\x13?'
p1951
tp1952
Rp1953
ag2
(g6
S'GD\xd0\xbe'
p1954
tp1955
Rp1956
ag2
(g6
S'\xc1)X\xbe'
p1957
tp1958
Rp1959
asI33
(lp1960
g2
(g6
S'\xc2\xbb\x03\xbf'
p1961
tp1962
Rp1963
ag2
(g6
S'\xec\\\xa0\xbe'
p1964
tp1965
Rp1966
ag2
(g6
S'Lh/\xbe'
p1967
tp1968
Rp1969
ag2
(g6
S'^5\xfb\xbe'
p1970
tp1971
Rp1972
ag2
(g6
S'\xb9\xff\x11>'
p1973
tp1974
Rp1975
ag2
(g6
S'\x0bF\x8b\xbe'
p1976
tp1977
Rp1978
ag2
(g6
S'\xef\xfb\xb8\xbe'
p1979
tp1980
Rp1981
ag2
(g6
S'\x1e)\xa3>'
p1982
tp1983
Rp1984
ag2
(g6
S'mF\x1d>'
p1985
tp1986
Rp1987
ag2
(g6
S'\x04\xd9\xd7\xbe'
p1988
tp1989
Rp1990
ag2
(g6
S'n6\xc9\xbd'
p1991
tp1992
Rp1993
ag2
(g6
S'\x1e\x8b\xd7>'
p1994
tp1995
Rp1996
ag2
(g6
S'\xec+\x14?'
p1997
tp1998
Rp1999
ag2
(g6
S'\x1aA\xcc\xbe'
p2000
tp2001
Rp2002
ag2
(g6
S'\xf8!M>'
p2003
tp2004
Rp2005
ag2
(g6
S'\xb9\x12w\xbe'
p2006
tp2007
Rp2008
ag2
(g6
S'\xa3I\xeb='
p2009
tp2010
Rp2011
ag2
(g6
S'\x9b\x0c\xd1>'
p2012
tp2013
Rp2014
ag2
(g6
S'ORY\xbe'
p2015
tp2016
Rp2017
ag2
(g6
S'\xff.\xf3\xbe'
p2018
tp2019
Rp2020
asI34
(lp2021
g2
(g6
S'd\x94\xc3\xbe'
p2022
tp2023
Rp2024
ag2
(g6
S'\xce\xd2w\xbe'
p2025
tp2026
Rp2027
ag2
(g6
S'\xe6\x02\x0e\xbf'
p2028
tp2029
Rp2030
ag2
(g6
S'\xd3\xe4\x81\xbd'
p2031
tp2032
Rp2033
ag2
(g6
S'\x10\xcc~<'
p2034
tp2035
Rp2036
ag2
(g6
S'\x9ev\x90\xbe'
p2037
tp2038
Rp2039
ag2
(g6
S'\x8fmP>'
p2040
tp2041
Rp2042
ag2
(g6
S'\x90\x82\xd3>'
p2043
tp2044
Rp2045
ag2
(g6
S'\x83u\xd5>'
p2046
tp2047
Rp2048
ag2
(g6
S'C\xd1\x0c\xbf'
p2049
tp2050
Rp2051
ag2
(g6
S'*1\xcb\xbe'
p2052
tp2053
Rp2054
ag2
(g6
S'\xec\x0e+>'
p2055
tp2056
Rp2057
ag2
(g6
S'D5\xe8>'
p2058
tp2059
Rp2060
ag2
(g6
S'\xd9\x97\xbc\xbe'
p2061
tp2062
Rp2063
ag2
(g6
S'\x1b\xe4\xc0\xbd'
p2064
tp2065
Rp2066
ag2
(g6
S'\xd6=2\xbf'
p2067
tp2068
Rp2069
ag2
(g6
S'\xe8|\xc7>'
p2070
tp2071
Rp2072
ag2
(g6
S'\xc8)\xf1>'
p2073
tp2074
Rp2075
ag2
(g6
S'\x19G\x04\xbe'
p2076
tp2077
Rp2078
ag2
(g6
S'8\xe7\x0b\xbf'
p2079
tp2080
Rp2081
asI35
(lp2082
g2
(g6
S'\x15\xad\x0b\xbf'
p2083
tp2084
Rp2085
ag2
(g6
S'o \x85\xbe'
p2086
tp2087
Rp2088
ag2
(g6
S'OZ\xc4\xbe'
p2089
tp2090
Rp2091
ag2
(g6
S'\x8e\x13\x8a\xbe'
p2092
tp2093
Rp2094
ag2
(g6
S'\xbcb1='
p2095
tp2096
Rp2097
ag2
(g6
S'\x17(-\xbe'
p2098
tp2099
Rp2100
ag2
(g6
S'\xba\xcf\x1f>'
p2101
tp2102
Rp2103
ag2
(g6
S'Vh\x01?'
p2104
tp2105
Rp2106
ag2
(g6
S'\x0e\xb0\xab>'
p2107
tp2108
Rp2109
ag2
(g6
S'\xd5\xaf\xad\xbe'
p2110
tp2111
Rp2112
ag2
(g6
S'\xd0\x85d\xbe'
p2113
tp2114
Rp2115
ag2
(g6
S'\x96o\xb9>'
p2116
tp2117
Rp2118
ag2
(g6
S'&\xe6\x19?'
p2119
tp2120
Rp2121
ag2
(g6
S'V\xa7\xbe\xbe'
p2122
tp2123
Rp2124
ag2
(g6
S'\xd8Q$='
p2125
tp2126
Rp2127
ag2
(g6
S'\xdc\xd5\x1a\xbf'
p2128
tp2129
Rp2130
ag2
(g6
S'\xbde\xb0='
p2131
tp2132
Rp2133
ag2
(g6
S'\xb2\xc2\x90>'
p2134
tp2135
Rp2136
ag2
(g6
S'\xb6\x8bz\xbe'
p2137
tp2138
Rp2139
ag2
(g6
S'E\x08\xc5\xbe'
p2140
tp2141
Rp2142
asI36
(lp2143
g2
(g6
S'\x02\xb6\xd2\xbe'
p2144
tp2145
Rp2146
ag2
(g6
S'\xc4\x8c\x00\xbe'
p2147
tp2148
Rp2149
ag2
(g6
S'\xba\x18\x92\xbe'
p2150
tp2151
Rp2152
ag2
(g6
S'\\\xdc\x93\xbe'
p2153
tp2154
Rp2155
ag2
(g6
S'Q\xeb\x84>'
p2156
tp2157
Rp2158
ag2
(g6
S'\x82@\x85\xbe'
p2159
tp2160
Rp2161
ag2
(g6
S'\x0e\xa0\xcd\xbd'
p2162
tp2163
Rp2164
ag2
(g6
S'\xfd\x16a>'
p2165
tp2166
Rp2167
ag2
(g6
S'\xa1\x934>'
p2168
tp2169
Rp2170
ag2
(g6
S'V\\\xc1\xbe'
p2171
tp2172
Rp2173
ag2
(g6
S'vv\xf8\xbe'
p2174
tp2175
Rp2176
ag2
(g6
S'\xece\x11?'
p2177
tp2178
Rp2179
ag2
(g6
S'\x84+\x15?'
p2180
tp2181
Rp2182
ag2
(g6
S'\x9c\xbb\xb9\xbd'
p2183
tp2184
Rp2185
ag2
(g6
S'=\x8f\x91>'
p2186
tp2187
Rp2188
ag2
(g6
S'\xf7\xf0\xfb\xbe'
p2189
tp2190
Rp2191
ag2
(g6
S'0\x007>'
p2192
tp2193
Rp2194
ag2
(g6
S'>\xc4 ?'
p2195
tp2196
Rp2197
ag2
(g6
S'\xffI\x90\xbd'
p2198
tp2199
Rp2200
ag2
(g6
S'\xdeU\xc8\xbe'
p2201
tp2202
Rp2203
asI37
(lp2204
g2
(g6
S'\xe7\xa0\x81\xbe'
p2205
tp2206
Rp2207
ag2
(g6
S'\xd3I\xb3\xbe'
p2208
tp2209
Rp2210
ag2
(g6
S'\xf0:\x08\xbe'
p2211
tp2212
Rp2213
ag2
(g6
S'\x8e\xd0C\xbe'
p2214
tp2215
Rp2216
ag2
(g6
S'\xfd"\xe5>'
p2217
tp2218
Rp2219
ag2
(g6
S'E\x13\xda\xbe'
p2220
tp2221
Rp2222
ag2
(g6
S'\x00\x02\xef\xbd'
p2223
tp2224
Rp2225
ag2
(g6
S'\xd6\xf7\xc7>'
p2226
tp2227
Rp2228
ag2
(g6
S'\xd0\x98\x86>'
p2229
tp2230
Rp2231
ag2
(g6
S'\xe6\xe9\x7f\xbe'
p2232
tp2233
Rp2234
ag2
(g6
S'\x83A;\xbe'
p2235
tp2236
Rp2237
ag2
(g6
S'\x86\xd0\xc2>'
p2238
tp2239
Rp2240
ag2
(g6
S'\xbd\x9f\x0c?'
p2241
tp2242
Rp2243
ag2
(g6
S'\xc68\x7f\xbe'
p2244
tp2245
Rp2246
ag2
(g6
S'\xde\x0b\xbf>'
p2247
tp2248
Rp2249
ag2
(g6
S'd\xa8\x07\xbf'
p2250
tp2251
Rp2252
ag2
(g6
S'\x94qW>'
p2253
tp2254
Rp2255
ag2
(g6
S'\xfe\x8a\x11?'
p2256
tp2257
Rp2258
ag2
(g6
S'\xe1D2\xbe'
p2259
tp2260
Rp2261
ag2
(g6
S'N\x8f\x9b\xbe'
p2262
tp2263
Rp2264
asI38
(lp2265
g2
(g6
S'N\x00\x17\xbf'
p2266
tp2267
Rp2268
ag2
(g6
S'\x9a\xa3>\xbe'
p2269
tp2270
Rp2271
ag2
(g6
S'`\x8a\x9a\xbe'
p2272
tp2273
Rp2274
ag2
(g6
S'n\x95\xaf\xbe'
p2275
tp2276
Rp2277
ag2
(g6
S'\x8f\xe5\xf6>'
p2278
tp2279
Rp2280
ag2
(g6
S'\x0f\x06\x88\xbe'
p2281
tp2282
Rp2283
ag2
(g6
S'v>\xdd\xbd'
p2284
tp2285
Rp2286
ag2
(g6
S'\xba\xb6\xff>'
p2287
tp2288
Rp2289
ag2
(g6
S'Ou\x98>'
p2290
tp2291
Rp2292
ag2
(g6
S'\nF\xc0\xbe'
p2293
tp2294
Rp2295
ag2
(g6
S'\xa7\xfd\xbb\xbe'
p2296
tp2297
Rp2298
ag2
(g6
S'\xc3\x02\x8e>'
p2299
tp2300
Rp2301
ag2
(g6
S'\xbd"\xac>'
p2302
tp2303
Rp2304
ag2
(g6
S'\x84\xccv\xbe'
p2305
tp2306
Rp2307
ag2
(g6
S"'p\x00?"
p2308
tp2309
Rp2310
ag2
(g6
S'\x88\xe9\xf3\xbe'
p2311
tp2312
Rp2313
ag2
(g6
S'o%F\xbe'
p2314
tp2315
Rp2316
ag2
(g6
S'\xc3~\xef>'
p2317
tp2318
Rp2319
ag2
(g6
S'\x8cM\xcc<'
p2320
tp2321
Rp2322
ag2
(g6
S's\xa7\x11\xbe'
p2323
tp2324
Rp2325
asI39
(lp2326
g2
(g6
S'\xed\xafI\xbe'
p2327
tp2328
Rp2329
ag2
(g6
S'\xaa\xe9\x80\xbe'
p2330
tp2331
Rp2332
ag2
(g6
S'(6\xd4\xbe'
p2333
tp2334
Rp2335
ag2
(g6
S'\xfa\xc1\xf4\xbd'
p2336
tp2337
Rp2338
ag2
(g6
S'\xf9\xc0\xf0='
p2339
tp2340
Rp2341
ag2
(g6
S'*C\xe0\xbe'
p2342
tp2343
Rp2344
ag2
(g6
S'M\\\xaa\xbd'
p2345
tp2346
Rp2347
ag2
(g6
S'\xa9\x8e\xf8>'
p2348
tp2349
Rp2350
ag2
(g6
S'F \xeb>'
p2351
tp2352
Rp2353
ag2
(g6
S'\xf0Y\xb1\xbe'
p2354
tp2355
Rp2356
ag2
(g6
S'\x9az\n\xbf'
p2357
tp2358
Rp2359
ag2
(g6
S'.\xbe\xfd>'
p2360
tp2361
Rp2362
ag2
(g6
S'\xf23\xa0>'
p2363
tp2364
Rp2365
ag2
(g6
S'\xc5\xe1\x00\xbe'
p2366
tp2367
Rp2368
ag2
(g6
S'~$\xde='
p2369
tp2370
Rp2371
ag2
(g6
S'\xf2c\xf7\xbe'
p2372
tp2373
Rp2374
ag2
(g6
S'\x80\x80~>'
p2375
tp2376
Rp2377
ag2
(g6
S'\x12\x00\x00?'
p2378
tp2379
Rp2380
ag2
(g6
S'\xc6&s\xbe'
p2381
tp2382
Rp2383
ag2
(g6
S'53\x9f\xbe'
p2384
tp2385
Rp2386
asI40
(lp2387
g2
(g6
S'\x13\xc5\xfa\xbe'
p2388
tp2389
Rp2390
ag2
(g6
S'\xe3L \xbe'
p2391
tp2392
Rp2393
ag2
(g6
S'\xae\x81\xc7\xbe'
p2394
tp2395
Rp2396
ag2
(g6
S'\x08<\x97\xbe'
p2397
tp2398
Rp2399
ag2
(g6
S'\xca\x0e\xd5>'
p2400
tp2401
Rp2402
ag2
(g6
S'\x14\x03\x89\xbe'
p2403
tp2404
Rp2405
ag2
(g6
S'.\t\xbd\xbe'
p2406
tp2407
Rp2408
ag2
(g6
S'\xc4\x94\x98>'
p2409
tp2410
Rp2411
ag2
(g6
S'\x9c{P>'
p2412
tp2413
Rp2414
ag2
(g6
S'\xedYR\xbe'
p2415
tp2416
Rp2417
ag2
(g6
S'F\xc4\xbd\xbe'
p2418
tp2419
Rp2420
ag2
(g6
S'\xa0f\xb3>'
p2421
tp2422
Rp2423
ag2
(g6
S'DL\xbc>'
p2424
tp2425
Rp2426
ag2
(g6
S'-a\x99\xbe'
p2427
tp2428
Rp2429
ag2
(g6
S'\x0c\nx>'
p2430
tp2431
Rp2432
ag2
(g6
S'\x0e4\n\xbf'
p2433
tp2434
Rp2435
ag2
(g6
S'\xaa\xf9r>'
p2436
tp2437
Rp2438
ag2
(g6
S'\xfc\x1b\xfd>'
p2439
tp2440
Rp2441
ag2
(g6
S'\xd0^\xba\xbd'
p2442
tp2443
Rp2444
ag2
(g6
S'\xc4\x9e\x9f\xbe'
p2445
tp2446
Rp2447
asI41
(lp2448
g2
(g6
S'\xd0\xa8j\xbe'
p2449
tp2450
Rp2451
ag2
(g6
S'\xcf;F\xbe'
p2452
tp2453
Rp2454
ag2
(g6
S'-\xeb\xad\xbd'
p2455
tp2456
Rp2457
ag2
(g6
S'\xc4\xaf\xc9\xbd'
p2458
tp2459
Rp2460
ag2
(g6
S'\xc3\x0b\xa3>'
p2461
tp2462
Rp2463
ag2
(g6
S'\n~\xe2\xbc'
p2464
tp2465
Rp2466
ag2
(g6
S'\xdc\n;\xbc'
p2467
tp2468
Rp2469
ag2
(g6
S'J6\x0c?'
p2470
tp2471
Rp2472
ag2
(g6
S'\xc89\xcc>'
p2473
tp2474
Rp2475
ag2
(g6
S'V\x05u\xbe'
p2476
tp2477
Rp2478
ag2
(g6
S'\xf4\x96\xdf\xbe'
p2479
tp2480
Rp2481
ag2
(g6
S'\xac\xc2\xe3>'
p2482
tp2483
Rp2484
ag2
(g6
S'\xe4\x94\xc2>'
p2485
tp2486
Rp2487
ag2
(g6
S'\xe9\xac\xa9\xbe'
p2488
tp2489
Rp2490
ag2
(g6
S':mV>'
p2491
tp2492
Rp2493
ag2
(g6
S'zO\x1a\xbf'
p2494
tp2495
Rp2496
ag2
(g6
S'\xf6\x8f\xac\xbe'
p2497
tp2498
Rp2499
ag2
(g6
S'n\x07\xa2>'
p2500
tp2501
Rp2502
ag2
(g6
S'_@\x8e\xbe'
p2503
tp2504
Rp2505
ag2
(g6
S'\xe1\xa8\xf7\xbe'
p2506
tp2507
Rp2508
asI42
(lp2509
g2
(g6
S')\xc6f\xbe'
p2510
tp2511
Rp2512
ag2
(g6
S'\x96i`\xbe'
p2513
tp2514
Rp2515
ag2
(g6
S'\xf2t)\xbe'
p2516
tp2517
Rp2518
ag2
(g6
S'\x1a\xba\xea\xbe'
p2519
tp2520
Rp2521
ag2
(g6
S'\x10\xfeM>'
p2522
tp2523
Rp2524
ag2
(g6
S'\x82\x87E\xbd'
p2525
tp2526
Rp2527
ag2
(g6
S'\x98<\x95\xbe'
p2528
tp2529
Rp2530
ag2
(g6
S'\xa4G\x90>'
p2531
tp2532
Rp2533
ag2
(g6
S'\xd8\xd2\xb5>'
p2534
tp2535
Rp2536
ag2
(g6
S'!\xa3\x00\xbf'
p2537
tp2538
Rp2539
ag2
(g6
S'\x80\xaar\xbe'
p2540
tp2541
Rp2542
ag2
(g6
S'\xb3\xfb%?'
p2543
tp2544
Rp2545
ag2
(g6
S'\xe6.\xe3>'
p2546
tp2547
Rp2548
ag2
(g6
S'\x8a\xce+\xbe'
p2549
tp2550
Rp2551
ag2
(g6
S'{\r\xb8='
p2552
tp2553
Rp2554
ag2
(g6
S'Z\xf9\xc1\xbe'
p2555
tp2556
Rp2557
ag2
(g6
S'\x02\x02\xc1\xbe'
p2558
tp2559
Rp2560
ag2
(g6
S'H\x18\x06?'
p2561
tp2562
Rp2563
ag2
(g6
S'\xf2;\x91\xbe'
p2564
tp2565
Rp2566
ag2
(g6
S's\x9b\xb5\xbe'
p2567
tp2568
Rp2569
asI43
(lp2570
g2
(g6
S'\xf4\xd2\xf0\xbe'
p2571
tp2572
Rp2573
ag2
(g6
S'\xd5\x05\xfe\xbe'
p2574
tp2575
Rp2576
ag2
(g6
S'\x1e7\xb6\xbe'
p2577
tp2578
Rp2579
ag2
(g6
S'R\xa1n\xbe'
p2580
tp2581
Rp2582
ag2
(g6
S'\x1c\xcc&>'
p2583
tp2584
Rp2585
ag2
(g6
S'\\\x9a\xcb\xbe'
p2586
tp2587
Rp2588
ag2
(g6
S'\xba\xfe\xf8\xbd'
p2589
tp2590
Rp2591
ag2
(g6
S'TM$?'
p2592
tp2593
Rp2594
ag2
(g6
S'c\xc8I>'
p2595
tp2596
Rp2597
ag2
(g6
S'-\xda\x8f\xbe'
p2598
tp2599
Rp2600
ag2
(g6
S'\xd6\xe9\x0c\xbf'
p2601
tp2602
Rp2603
ag2
(g6
S'\x99-\xe5>'
p2604
tp2605
Rp2606
ag2
(g6
S'l\xff\xb0>'
p2607
tp2608
Rp2609
ag2
(g6
S'\x05>}\xbd'
p2610
tp2611
Rp2612
ag2
(g6
S'\xf0\xf7E\xbc'
p2613
tp2614
Rp2615
ag2
(g6
S'\x18\xba\xb8\xbe'
p2616
tp2617
Rp2618
ag2
(g6
S'\xd8\xbb\xdd<'
p2619
tp2620
Rp2621
ag2
(g6
S'0\x04\xbd>'
p2622
tp2623
Rp2624
ag2
(g6
S'\x95\xbd\x0c\xbe'
p2625
tp2626
Rp2627
ag2
(g6
S'\xb0\x96\xbc\xbe'
p2628
tp2629
Rp2630
asI44
(lp2631
g2
(g6
S'\xa2\xb3\x97\xbe'
p2632
tp2633
Rp2634
ag2
(g6
S'I\xa7\xf8\xbe'
p2635
tp2636
Rp2637
ag2
(g6
S'CT\xcb\xbd'
p2638
tp2639
Rp2640
ag2
(g6
S'@:]\xbb'
p2641
tp2642
Rp2643
ag2
(g6
S'f\x02>>'
p2644
tp2645
Rp2646
ag2
(g6
S't\x82G>'
p2647
tp2648
Rp2649
ag2
(g6
S'\xdf\x1b\x03>'
p2650
tp2651
Rp2652
ag2
(g6
S'#\x80\x16?'
p2653
tp2654
Rp2655
ag2
(g6
S'\xf3\x84\x9e>'
p2656
tp2657
Rp2658
ag2
(g6
S'+\x8fj\xbe'
p2659
tp2660
Rp2661
ag2
(g6
S'R\xfc\xeb\xbe'
p2662
tp2663
Rp2664
ag2
(g6
S'IE\xae>'
p2665
tp2666
Rp2667
ag2
(g6
S'\x80\xfa\x17?'
p2668
tp2669
Rp2670
ag2
(g6
S'\x066\x19\xbe'
p2671
tp2672
Rp2673
ag2
(g6
S'Y6\xc0>'
p2674
tp2675
Rp2676
ag2
(g6
S'\xaeS\xe1\xbe'
p2677
tp2678
Rp2679
ag2
(g6
S'\xf6\xc9\x81\xbe'
p2680
tp2681
Rp2682
ag2
(g6
S'\xf0"\x14?'
p2683
tp2684
Rp2685
ag2
(g6
S'\xd3\x93\x87\xbe'
p2686
tp2687
Rp2688
ag2
(g6
S'\x12"\xd9\xbe'
p2689
tp2690
Rp2691
asI45
(lp2692
g2
(g6
S'\x1c\xa3\xe9\xbe'
p2693
tp2694
Rp2695
ag2
(g6
S'\x99tN\xbe'
p2696
tp2697
Rp2698
ag2
(g6
S'!Y\xaf\xbd'
p2699
tp2700
Rp2701
ag2
(g6
S'\xe7\xa3\xa5\xbe'
p2702
tp2703
Rp2704
ag2
(g6
S'\xe0(\x9a>'
p2705
tp2706
Rp2707
ag2
(g6
S'%\x0f]\xbe'
p2708
tp2709
Rp2710
ag2
(g6
S'U\xf3\x8e\xbe'
p2711
tp2712
Rp2713
ag2
(g6
S' \xf4\xd3>'
p2714
tp2715
Rp2716
ag2
(g6
S'\xd4A]>'
p2717
tp2718
Rp2719
ag2
(g6
S'\x9cB\x05\xbf'
p2720
tp2721
Rp2722
ag2
(g6
S'\xef\xe0\xc2\xbe'
p2723
tp2724
Rp2725
ag2
(g6
S'\xc1\x1b\x95>'
p2726
tp2727
Rp2728
ag2
(g6
S'2\xaa\xfb>'
p2729
tp2730
Rp2731
ag2
(g6
S'_W\x83\xbe'
p2732
tp2733
Rp2734
ag2
(g6
S'\xf5s\xe2>'
p2735
tp2736
Rp2737
ag2
(g6
S'\x884z\xbe'
p2738
tp2739
Rp2740
ag2
(g6
S'la\x7f>'
p2741
tp2742
Rp2743
ag2
(g6
S'@1\xe5>'
p2744
tp2745
Rp2746
ag2
(g6
S'\xean\xa9\xbe'
p2747
tp2748
Rp2749
ag2
(g6
S'\x95\xed\xaf\xbe'
p2750
tp2751
Rp2752
asI46
(lp2753
g2
(g6
S'\xb5W\xa2\xbe'
p2754
tp2755
Rp2756
ag2
(g6
S'\x80S\x02\xbf'
p2757
tp2758
Rp2759
ag2
(g6
S'\xf5\xb3\xd8\xbe'
p2760
tp2761
Rp2762
ag2
(g6
S'\xfb\\D\xbe'
p2763
tp2764
Rp2765
ag2
(g6
S'\x81\x1b">'
p2766
tp2767
Rp2768
ag2
(g6
S'\xd4\xd0\x17\xbe'
p2769
tp2770
Rp2771
ag2
(g6
S'\x0b\x90\x8c\xbe'
p2772
tp2773
Rp2774
ag2
(g6
S'\x19\xd5H>'
p2775
tp2776
Rp2777
ag2
(g6
S'0\xa9\xc1>'
p2778
tp2779
Rp2780
ag2
(g6
S'\xfd}\x0e\xbf'
p2781
tp2782
Rp2783
ag2
(g6
S':\xfc\xfb\xbe'
p2784
tp2785
Rp2786
ag2
(g6
S'\xda\xc6v>'
p2787
tp2788
Rp2789
ag2
(g6
S'\xda\x95\xe4>'
p2790
tp2791
Rp2792
ag2
(g6
S'A\x1b<\xbe'
p2793
tp2794
Rp2795
ag2
(g6
S'9\xb6Z='
p2796
tp2797
Rp2798
ag2
(g6
S's\xb9\xd5\xbe'
p2799
tp2800
Rp2801
ag2
(g6
S"n'\x16>"
p2802
tp2803
Rp2804
ag2
(g6
S'M\x1d ?'
p2805
tp2806
Rp2807
ag2
(g6
S'p-X\xbe'
p2808
tp2809
Rp2810
ag2
(g6
S'\xf4\x14\x87\xbe'
p2811
tp2812
Rp2813
asI47
(lp2814
g2
(g6
S'\x10\xcd\x83\xbe'
p2815
tp2816
Rp2817
ag2
(g6
S'.\xc4K\xbe'
p2818
tp2819
Rp2820
ag2
(g6
S'\x9a]\xed\xbe'
p2821
tp2822
Rp2823
ag2
(g6
S'\xddD\x85\xbe'
p2824
tp2825
Rp2826
ag2
(g6
S'\x94\x02\xae\xbc'
p2827
tp2828
Rp2829
ag2
(g6
S'\xd1\xd6\xe5\xbe'
p2830
tp2831
Rp2832
ag2
(g6
S'\xb3\xfc\\='
p2833
tp2834
Rp2835
ag2
(g6
S'\xa9\xe2\xd0>'
p2836
tp2837
Rp2838
ag2
(g6
S'\xf6\xceU>'
p2839
tp2840
Rp2841
ag2
(g6
S'\xbbD\xc9\xbe'
p2842
tp2843
Rp2844
ag2
(g6
S'\xf8s\xa7\xbe'
p2845
tp2846
Rp2847
ag2
(g6
S'\x1a\x8b\xe9>'
p2848
tp2849
Rp2850
ag2
(g6
S'\xfa\xfb\xe2>'
p2851
tp2852
Rp2853
ag2
(g6
S'\x02\n\x8c\xbe'
p2854
tp2855
Rp2856
ag2
(g6
S'\xe8In='
p2857
tp2858
Rp2859
ag2
(g6
S'\xden,\xbf'
p2860
tp2861
Rp2862
ag2
(g6
S'\xb0\r\xa3\xbd'
p2863
tp2864
Rp2865
ag2
(g6
S'V\xb1\xe3>'
p2866
tp2867
Rp2868
ag2
(g6
S'\x82\x89\xa0\xbe'
p2869
tp2870
Rp2871
ag2
(g6
S'\x1c\xde\xd7\xbe'
p2872
tp2873
Rp2874
asI48
(lp2875
g2
(g6
S'\xda\xb4-\xbe'
p2876
tp2877
Rp2878
ag2
(g6
S'\xf2U\x8b\xbe'
p2879
tp2880
Rp2881
ag2
(g6
S'\xba\x9a\xc0\xbe'
p2882
tp2883
Rp2884
ag2
(g6
S'\xda\xad\x80\xbe'
p2885
tp2886
Rp2887
ag2
(g6
S'\x8em?>'
p2888
tp2889
Rp2890
ag2
(g6
S'\x83lD='
p2891
tp2892
Rp2893
ag2
(g6
S'N\xa5\x87\xbd'
p2894
tp2895
Rp2896
ag2
(g6
S'vv\xfb>'
p2897
tp2898
Rp2899
ag2
(g6
S'`Zz>'
p2900
tp2901
Rp2902
ag2
(g6
S'J\xef{\xbe'
p2903
tp2904
Rp2905
ag2
(g6
S'\xce\xd3\xa1\xbe'
p2906
tp2907
Rp2908
ag2
(g6
S'\xd4`\r?'
p2909
tp2910
Rp2911
ag2
(g6
S'\x90\xe6\xd2>'
p2912
tp2913
Rp2914
ag2
(g6
S"\xda\x8d'\xbe"
p2915
tp2916
Rp2917
ag2
(g6
S'\x13\xa9\xaf='
p2918
tp2919
Rp2920
ag2
(g6
S'\xfcu\xf8\xbe'
p2921
tp2922
Rp2923
ag2
(g6
S'a%w\xbe'
p2924
tp2925
Rp2926
ag2
(g6
S'\xe22\x11?'
p2927
tp2928
Rp2929
ag2
(g6
S'\x9eyi\xbe'
p2930
tp2931
Rp2932
ag2
(g6
S'\xe4\x80\xd6\xbe'
p2933
tp2934
Rp2935
asI49
(lp2936
g2
(g6
S'\xac\xb2\x8d\xbe'
p2937
tp2938
Rp2939
ag2
(g6
S'\xb4\nl\xbe'
p2940
tp2941
Rp2942
ag2
(g6
S'\xd6Z\xee\xbe'
p2943
tp2944
Rp2945
ag2
(g6
S'^/\xbc\xbe'
p2946
tp2947
Rp2948
ag2
(g6
S'\xba\x1e\xde>'
p2949
tp2950
Rp2951
ag2
(g6
S'h\xd5\xa7\xbe'
p2952
tp2953
Rp2954
ag2
(g6
S'a\x1bY\xbd'
p2955
tp2956
Rp2957
ag2
(g6
S'\x1e\x0c\xdc>'
p2958
tp2959
Rp2960
ag2
(g6
S'\xa2\x00\x9f>'
p2961
tp2962
Rp2963
ag2
(g6
S'nx\x91\xbe'
p2964
tp2965
Rp2966
ag2
(g6
S'<\x1a\x11\xbf'
p2967
tp2968
Rp2969
ag2
(g6
S'q%\xe8>'
p2970
tp2971
Rp2972
ag2
(g6
S'\xe3u\xbb>'
p2973
tp2974
Rp2975
ag2
(g6
S'\x9f$\x82\xbe'
p2976
tp2977
Rp2978
ag2
(g6
S'\x1c\xb04='
p2979
tp2980
Rp2981
ag2
(g6
S'`\x86\xe9\xbe'
p2982
tp2983
Rp2984
ag2
(g6
S'\x81\xd5`='
p2985
tp2986
Rp2987
ag2
(g6
S'H\nt>'
p2988
tp2989
Rp2990
ag2
(g6
S'\xeb\x9c\x1a\xbe'
p2991
tp2992
Rp2993
ag2
(g6
S'\xef\xe8X\xbe'
p2994
tp2995
Rp2996
asI50
(lp2997
g2
(g6
S']\xbfb\xbe'
p2998
tp2999
Rp3000
ag2
(g6
S'3}\x01\xbe'
p3001
tp3002
Rp3003
ag2
(g6
S'\xe0I]\xbe'
p3004
tp3005
Rp3006
ag2
(g6
S'\x1c\xab\x82\xbe'
p3007
tp3008
Rp3009
ag2
(g6
S'n\xe9\xc3>'
p3010
tp3011
Rp3012
ag2
(g6
S'\xea\xee$\xbe'
p3013
tp3014
Rp3015
ag2
(g6
S'\xd3\xe5\xf4\xbe'
p3016
tp3017
Rp3018
ag2
(g6
S'\xfc\xfd\x87>'
p3019
tp3020
Rp3021
ag2
(g6
S'X6P>'
p3022
tp3023
Rp3024
ag2
(g6
S'\xd3\xef\x0e\xbf'
p3025
tp3026
Rp3027
ag2
(g6
S'h`\xf4\xbe'
p3028
tp3029
Rp3030
ag2
(g6
S')v\r?'
p3031
tp3032
Rp3033
ag2
(g6
S'\xc7\\\xa6>'
p3034
tp3035
Rp3036
ag2
(g6
S'\x8c\xac]\xbe'
p3037
tp3038
Rp3039
ag2
(g6
S'\x04+@>'
p3040
tp3041
Rp3042
ag2
(g6
S'\x93\x86\xd1\xbe'
p3043
tp3044
Rp3045
ag2
(g6
S'\x87\x99~>'
p3046
tp3047
Rp3048
ag2
(g6
S'\xa2\x9e\xfd>'
p3049
tp3050
Rp3051
ag2
(g6
S'\xc7\xd1K\xbe'
p3052
tp3053
Rp3054
ag2
(g6
S'e(\xca\xbe'
p3055
tp3056
Rp3057
asI51
(lp3058
g2
(g6
S'\x113\xf1\xbe'
p3059
tp3060
Rp3061
ag2
(g6
S'J\x94y\xbe'
p3062
tp3063
Rp3064
ag2
(g6
S'*\xe21\xbd'
p3065
tp3066
Rp3067
ag2
(g6
S'x\xa8(\xbe'
p3068
tp3069
Rp3070
ag2
(g6
S' \xd8\x93>'
p3071
tp3072
Rp3073
ag2
(g6
S'\x05S\x1e\xbe'
p3074
tp3075
Rp3076
ag2
(g6
S'\xd5<l\xbe'
p3077
tp3078
Rp3079
ag2
(g6
S'\x18%\xe8>'
p3080
tp3081
Rp3082
ag2
(g6
S'w\x11\xa9>'
p3083
tp3084
Rp3085
ag2
(g6
S'?O\xaf\xbe'
p3086
tp3087
Rp3088
ag2
(g6
S'HD\xf2\xbe'
p3089
tp3090
Rp3091
ag2
(g6
S'\xe8\x0e\x17?'
p3092
tp3093
Rp3094
ag2
(g6
S'\x893\x90>'
p3095
tp3096
Rp3097
ag2
(g6
S'\xa4\xa1\xbb\xbd'
p3098
tp3099
Rp3100
ag2
(g6
S'h\xd4S<'
p3101
tp3102
Rp3103
ag2
(g6
S'\xf2\xd5\xa9\xbe'
p3104
tp3105
Rp3106
ag2
(g6
S'\x06\xc0\xad\xbd'
p3107
tp3108
Rp3109
ag2
(g6
S'\xca\x90\x12?'
p3110
tp3111
Rp3112
ag2
(g6
S'\xf4\xe9\x19\xbe'
p3113
tp3114
Rp3115
ag2
(g6
S'\x8c#\x90\xbe'
p3116
tp3117
Rp3118
asI52
(lp3119
g2
(g6
S'\xe6h\xda\xbd'
p3120
tp3121
Rp3122
ag2
(g6
S'\xe6\x81\xa3\xbe'
p3123
tp3124
Rp3125
ag2
(g6
S'?\x1a\x8f\xbe'
p3126
tp3127
Rp3128
ag2
(g6
S'V^\xe7\xbe'
p3129
tp3130
Rp3131
ag2
(g6
S'\xd2\xc5\x18>'
p3132
tp3133
Rp3134
ag2
(g6
S'\x12\x03\xaa\xbd'
p3135
tp3136
Rp3137
ag2
(g6
S'\xfc\x98\xbe\xbe'
p3138
tp3139
Rp3140
ag2
(g6
S'jK\xe4>'
p3141
tp3142
Rp3143
ag2
(g6
S'\x92\xa2\x08>'
p3144
tp3145
Rp3146
ag2
(g6
S'f\xe1\x86\xbe'
p3147
tp3148
Rp3149
ag2
(g6
S'b\x98\xba\xbe'
p3150
tp3151
Rp3152
ag2
(g6
S'O"\x1b?'
p3153
tp3154
Rp3155
ag2
(g6
S'\xaes\x84>'
p3156
tp3157
Rp3158
ag2
(g6
S'1\xe14\xbe'
p3159
tp3160
Rp3161
ag2
(g6
S'\x087\x04='
p3162
tp3163
Rp3164
ag2
(g6
S'\x18\x9a\n\xbf'
p3165
tp3166
Rp3167
ag2
(g6
S'\xa7\x15e>'
p3168
tp3169
Rp3170
ag2
(g6
S'\x9c\xee\x11?'
p3171
tp3172
Rp3173
ag2
(g6
S'\xafKR\xbe'
p3174
tp3175
Rp3176
ag2
(g6
S'\xb9\x16y\xbe'
p3177
tp3178
Rp3179
asI53
(lp3180
g2
(g6
S'ZG\x00\xbf'
p3181
tp3182
Rp3183
ag2
(g6
S'\x82\x8c\xb6\xbe'
p3184
tp3185
Rp3186
ag2
(g6
S'\x88\x9b\xc6\xbe'
p3187
tp3188
Rp3189
ag2
(g6
S'\xb2\xfe\xad\xbe'
p3190
tp3191
Rp3192
ag2
(g6
S'\xc1\xf1\xf9>'
p3193
tp3194
Rp3195
ag2
(g6
S'\x86\xc3v\xbe'
p3196
tp3197
Rp3198
ag2
(g6
S'\xc0\xab;\xbb'
p3199
tp3200
Rp3201
ag2
(g6
S'3G\x05?'
p3202
tp3203
Rp3204
ag2
(g6
S'>\xca\n>'
p3205
tp3206
Rp3207
ag2
(g6
S'Es\x85\xbe'
p3208
tp3209
Rp3210
ag2
(g6
S'\xb8`S\xbe'
p3211
tp3212
Rp3213
ag2
(g6
S'\xb2\xe6\xb4>'
p3214
tp3215
Rp3216
ag2
(g6
S'\x9c|\x00?'
p3217
tp3218
Rp3219
ag2
(g6
S'`x\xb3\xbe'
p3220
tp3221
Rp3222
ag2
(g6
S'D\xbb\xb4='
p3223
tp3224
Rp3225
ag2
(g6
S'h8\xbc\xbe'
p3226
tp3227
Rp3228
ag2
(g6
S'\x8c\x81\x91\xbd'
p3229
tp3230
Rp3231
ag2
(g6
S'_\xa6\xfa>'
p3232
tp3233
Rp3234
ag2
(g6
S'\xca\x1bV\xbe'
p3235
tp3236
Rp3237
ag2
(g6
S'\x04\x90#\xbe'
p3238
tp3239
Rp3240
asI54
(lp3241
g2
(g6
S'\x91\x04\x0c\xbf'
p3242
tp3243
Rp3244
ag2
(g6
S'\x96\x1c\xd1\xbe'
p3245
tp3246
Rp3247
ag2
(g6
S'y"\x19\xbe'
p3248
tp3249
Rp3250
ag2
(g6
S'.\x98G\xbe'
p3251
tp3252
Rp3253
ag2
(g6
S'\xcf\x9d\x9e>'
p3254
tp3255
Rp3256
ag2
(g6
S'N\x17A\xbe'
p3257
tp3258
Rp3259
ag2
(g6
S',\xf4\xf0\xbd'
p3260
tp3261
Rp3262
ag2
(g6
S'J\x80\xc3>'
p3263
tp3264
Rp3265
ag2
(g6
S'\x08{\xaa='
p3266
tp3267
Rp3268
ag2
(g6
S'\nX\xe8\xbe'
p3269
tp3270
Rp3271
ag2
(g6
S'L7\xd1\xbe'
p3272
tp3273
Rp3274
ag2
(g6
S'ef\x02?'
p3275
tp3276
Rp3277
ag2
(g6
S'\x81\xf7m>'
p3278
tp3279
Rp3280
ag2
(g6
S'\xb0Q\xbb\xbe'
p3281
tp3282
Rp3283
ag2
(g6
S'\xda^X='
p3284
tp3285
Rp3286
ag2
(g6
S'\x88M\xfa\xbe'
p3287
tp3288
Rp3289
ag2
(g6
S'\xde\xd7\x80\xbe'
p3290
tp3291
Rp3292
ag2
(g6
S'\xb5\xff\xbd>'
p3293
tp3294
Rp3295
ag2
(g6
S'\xa8\xd7\xbc\xbe'
p3296
tp3297
Rp3298
ag2
(g6
S'U\xfa\xbb\xbe'
p3299
tp3300
Rp3301
asI55
(lp3302
g2
(g6
S'\xad?\xed\xbe'
p3303
tp3304
Rp3305
ag2
(g6
S'\xfa\xb7@\xbe'
p3306
tp3307
Rp3308
ag2
(g6
S'3\x18\x1f\xbe'
p3309
tp3310
Rp3311
ag2
(g6
S'\x06&\x83\xbe'
p3312
tp3313
Rp3314
ag2
(g6
S'\x0fo\xce>'
p3315
tp3316
Rp3317
ag2
(g6
S'+\x0e\xd0\xbe'
p3318
tp3319
Rp3320
ag2
(g6
S'\xa2\xf5}\xbd'
p3321
tp3322
Rp3323
ag2
(g6
S'V\xfc\xb9>'
p3324
tp3325
Rp3326
ag2
(g6
S'n\x99E>'
p3327
tp3328
Rp3329
ag2
(g6
S'\x9e\xd9v\xbe'
p3330
tp3331
Rp3332
ag2
(g6
S'\xe0q\x80\xbe'
p3333
tp3334
Rp3335
ag2
(g6
S'\x95\xba\x94>'
p3336
tp3337
Rp3338
ag2
(g6
S'X\xa7\xc3>'
p3339
tp3340
Rp3341
ag2
(g6
S'\x96\xf3\x16\xbe'
p3342
tp3343
Rp3344
ag2
(g6
S'\xb4v\xa9>'
p3345
tp3346
Rp3347
ag2
(g6
S'\xd6\xb4 \xbf'
p3348
tp3349
Rp3350
ag2
(g6
S',f\x00\xbe'
p3351
tp3352
Rp3353
ag2
(g6
S'X\xf5\x12?'
p3354
tp3355
Rp3356
ag2
(g6
S'`\x8d\xf1\xbe'
p3357
tp3358
Rp3359
ag2
(g6
S'\xc5\xb1\x1c\xbe'
p3360
tp3361
Rp3362
asI56
(lp3363
g2
(g6
S'\xaa\x06;\xbe'
p3364
tp3365
Rp3366
ag2
(g6
S'w\x00\xdf\xbe'
p3367
tp3368
Rp3369
ag2
(g6
S'\x9b\x9c\xee\xbe'
p3370
tp3371
Rp3372
ag2
(g6
S'\xe4\x12\xb9\xbe'
p3373
tp3374
Rp3375
ag2
(g6
S'E\xe6\x9a>'
p3376
tp3377
Rp3378
ag2
(g6
S'R\xb5\\\xbe'
p3379
tp3380
Rp3381
ag2
(g6
S'\xf2\x81\xed\xbd'
p3382
tp3383
Rp3384
ag2
(g6
S'\xfc4\xeb>'
p3385
tp3386
Rp3387
ag2
(g6
S'\xbaKB>'
p3388
tp3389
Rp3390
ag2
(g6
S'm/\x83\xbe'
p3391
tp3392
Rp3393
ag2
(g6
S'\xb6\x9f\xb5\xbe'
p3394
tp3395
Rp3396
ag2
(g6
S')=\x9d>'
p3397
tp3398
Rp3399
ag2
(g6
S'\xac%\x8d>'
p3400
tp3401
Rp3402
ag2
(g6
S'U\xcb\x89\xbe'
p3403
tp3404
Rp3405
ag2
(g6
S'\x88(\x03>'
p3406
tp3407
Rp3408
ag2
(g6
S'\xca\xdf\xcd\xbe'
p3409
tp3410
Rp3411
ag2
(g6
S'\xb7%t\xbe'
p3412
tp3413
Rp3414
ag2
(g6
S'@\xc0\xfc>'
p3415
tp3416
Rp3417
ag2
(g6
S'\x04B\x99\xbe'
p3418
tp3419
Rp3420
ag2
(g6
S'\xe3\xe3\x8a\xbe'
p3421
tp3422
Rp3423
asI57
(lp3424
g2
(g6
S'\xf4\xfd\x95\xbe'
p3425
tp3426
Rp3427
ag2
(g6
S'\x16\xc9\xc9\xbe'
p3428
tp3429
Rp3430
ag2
(g6
S'\xe3\x90\x16\xbe'
p3431
tp3432
Rp3433
ag2
(g6
S'\\:4\xbe'
p3434
tp3435
Rp3436
ag2
(g6
S'\xd2\xfb\x0f='
p3437
tp3438
Rp3439
ag2
(g6
S'2\xcb+\xbe'
p3440
tp3441
Rp3442
ag2
(g6
S'X\xfaF\xbe'
p3443
tp3444
Rp3445
ag2
(g6
S'\xb2B\xff>'
p3446
tp3447
Rp3448
ag2
(g6
S'j;\xc2='
p3449
tp3450
Rp3451
ag2
(g6
S'\xb8\x11\xd7\xbe'
p3452
tp3453
Rp3454
ag2
(g6
S'^\x16\xee\xbe'
p3455
tp3456
Rp3457
ag2
(g6
S"\xc0'\x0c?"
p3458
tp3459
Rp3460
ag2
(g6
S'lk\xa6>'
p3461
tp3462
Rp3463
ag2
(g6
S'\xd9\x9b\x9a\xbe'
p3464
tp3465
Rp3466
ag2
(g6
S"'-\xae="
p3467
tp3468
Rp3469
ag2
(g6
S'<\x06\xd4\xbe'
p3470
tp3471
Rp3472
ag2
(g6
S'\xcaE\x12>'
p3473
tp3474
Rp3475
ag2
(g6
S'\xf07\x11?'
p3476
tp3477
Rp3478
ag2
(g6
S':\x94\x8a\xbd'
p3479
tp3480
Rp3481
ag2
(g6
S'6\xca\xf9\xbe'
p3482
tp3483
Rp3484
asI58
(lp3485
g2
(g6
S'f!\t\xbf'
p3486
tp3487
Rp3488
ag2
(g6
S'*\x14\xa0\xbe'
p3489
tp3490
Rp3491
ag2
(g6
S'\xd8\x99\x99\xbe'
p3492
tp3493
Rp3494
ag2
(g6
S'\x1e\xe6T\xbe'
p3495
tp3496
Rp3497
ag2
(g6
S'\xb2\xd5\x8f>'
p3498
tp3499
Rp3500
ag2
(g6
S'?\xd3\xbd\xbd'
p3501
tp3502
Rp3503
ag2
(g6
S';8"\xbd'
p3504
tp3505
Rp3506
ag2
(g6
S'`\n\x0e?'
p3507
tp3508
Rp3509
ag2
(g6
S'c4\xd9>'
p3510
tp3511
Rp3512
ag2
(g6
S'\xceR\x0e\xbf'
p3513
tp3514
Rp3515
ag2
(g6
S'\x14z\xb9\xbd'
p3516
tp3517
Rp3518
ag2
(g6
S'\x1a\xc0\xef>'
p3519
tp3520
Rp3521
ag2
(g6
S'\xba\xee\x8b>'
p3522
tp3523
Rp3524
ag2
(g6
S'r\x17\x94\xbe'
p3525
tp3526
Rp3527
ag2
(g6
S'\x9a\x803='
p3528
tp3529
Rp3530
ag2
(g6
S'B\xb1\x11\xbf'
p3531
tp3532
Rp3533
ag2
(g6
S'x\xc1\xf8\xbc'
p3534
tp3535
Rp3536
ag2
(g6
S'\x13|o>'
p3537
tp3538
Rp3539
ag2
(g6
S'\x08\xb4q\xbe'
p3540
tp3541
Rp3542
ag2
(g6
S'\xf8\rp\xbe'
p3543
tp3544
Rp3545
asI59
(lp3546
g2
(g6
S'\xde\xc2`\xbe'
p3547
tp3548
Rp3549
ag2
(g6
S'/?\xec\xbe'
p3550
tp3551
Rp3552
ag2
(g6
S'\xcd\x80\xd3\xbe'
p3553
tp3554
Rp3555
ag2
(g6
S'\x86==\xbe'
p3556
tp3557
Rp3558
ag2
(g6
S'\xb0e\xd9>'
p3559
tp3560
Rp3561
ag2
(g6
S'W\xc3\xab\xbe'
p3562
tp3563
Rp3564
ag2
(g6
S'\x12F\xe3\xbd'
p3565
tp3566
Rp3567
ag2
(g6
S'\x02R\xce>'
p3568
tp3569
Rp3570
ag2
(g6
S'\x08^B<'
p3571
tp3572
Rp3573
ag2
(g6
S'1\x9dE\xbe'
p3574
tp3575
Rp3576
ag2
(g6
S'R\xfb\xd1\xbe'
p3577
tp3578
Rp3579
ag2
(g6
S'\x1cS\x03?'
p3580
tp3581
Rp3582
ag2
(g6
S' %\r?'
p3583
tp3584
Rp3585
ag2
(g6
S'#\x9fU\xbe'
p3586
tp3587
Rp3588
ag2
(g6
S'\xaaQ\xd9<'
p3589
tp3590
Rp3591
ag2
(g6
S'\xf6\n\xee\xbe'
p3592
tp3593
Rp3594
ag2
(g6
S'\xc4kJ>'
p3595
tp3596
Rp3597
ag2
(g6
S'\x84z\xf6>'
p3598
tp3599
Rp3600
ag2
(g6
S'\x1dE\xb8\xbd'
p3601
tp3602
Rp3603
ag2
(g6
S"\x87'\xc7\xbe"
p3604
tp3605
Rp3606
asI60
(lp3607
g2
(g6
S'\xe6I\xe4\xbe'
p3608
tp3609
Rp3610
ag2
(g6
S'D\x17^\xbe'
p3611
tp3612
Rp3613
ag2
(g6
S'\x16\xe1\xfe\xbe'
p3614
tp3615
Rp3616
ag2
(g6
S'\\\x8d\x96\xbe'
p3617
tp3618
Rp3619
ag2
(g6
S's\x86\xc2>'
p3620
tp3621
Rp3622
ag2
(g6
S'\x0fE\x18\xbe'
p3623
tp3624
Rp3625
ag2
(g6
S'\xd2;\xc2\xbe'
p3626
tp3627
Rp3628
ag2
(g6
S'\xfe\xcf1>'
p3629
tp3630
Rp3631
ag2
(g6
S'A\xc7g='
p3632
tp3633
Rp3634
ag2
(g6
S'\x88\x92\x9b\xbe'
p3635
tp3636
Rp3637
ag2
(g6
S'>@\xce\xbe'
p3638
tp3639
Rp3640
ag2
(g6
S'\xfa\xb9\xfb>'
p3641
tp3642
Rp3643
ag2
(g6
S'\xfdz\xa6>'
p3644
tp3645
Rp3646
ag2
(g6
S'\xfdq\xca\xbe'
p3647
tp3648
Rp3649
ag2
(g6
S'.\x84I>'
p3650
tp3651
Rp3652
ag2
(g6
S'\x80"\xa8\xbe'
p3653
tp3654
Rp3655
ag2
(g6
S'p\xef\x86<'
p3656
tp3657
Rp3658
ag2
(g6
S'\xd4\xec\xff>'
p3659
tp3660
Rp3661
ag2
(g6
S'\x88j6\xbe'
p3662
tp3663
Rp3664
ag2
(g6
S'\x9a*r\xbe'
p3665
tp3666
Rp3667
asI61
(lp3668
g2
(g6
S'\x96\xfb\x9e\xbe'
p3669
tp3670
Rp3671
ag2
(g6
S'\x8c\xbf\xe8\xbe'
p3672
tp3673
Rp3674
ag2
(g6
S'\xa8\xd1P\xbe'
p3675
tp3676
Rp3677
ag2
(g6
S'4\xfd\xc1\xbe'
p3678
tp3679
Rp3680
ag2
(g6
S'\xce\x99E>'
p3681
tp3682
Rp3683
ag2
(g6
S'!\x1b\xcf\xbe'
p3684
tp3685
Rp3686
ag2
(g6
S'5\xa3\x9d\xbe'
p3687
tp3688
Rp3689
ag2
(g6
S'\x1f\xc2G>'
p3690
tp3691
Rp3692
ag2
(g6
S'`\xdf\xd5='
p3693
tp3694
Rp3695
ag2
(g6
S'\xf2\xb1\xa4\xbe'
p3696
tp3697
Rp3698
ag2
(g6
S':\xa7\x9f\xbe'
p3699
tp3700
Rp3701
ag2
(g6
S'\x8c\x15\xb1>'
p3702
tp3703
Rp3704
ag2
(g6
S'\xde\x9c\x1e?'
p3705
tp3706
Rp3707
ag2
(g6
S'\x0e\xdf\x04\xbe'
p3708
tp3709
Rp3710
ag2
(g6
S'\x9bj\x8e>'
p3711
tp3712
Rp3713
ag2
(g6
S'\xf8o\xe8\xbe'
p3714
tp3715
Rp3716
ag2
(g6
S'\x05\x85B\xbe'
p3717
tp3718
Rp3719
ag2
(g6
S',\xa5\x9f>'
p3720
tp3721
Rp3722
ag2
(g6
S'e\xee\xcc\xbe'
p3723
tp3724
Rp3725
ag2
(g6
S'h\xeb\x12\xbf'
p3726
tp3727
Rp3728
asI62
(lp3729
g2
(g6
S'\xac[\xc1\xbe'
p3730
tp3731
Rp3732
ag2
(g6
S'{\x84\xcb\xbe'
p3733
tp3734
Rp3735
ag2
(g6
S'hUP\xbe'
p3736
tp3737
Rp3738
ag2
(g6
S'\x7f\xa0\x07\xbf'
p3739
tp3740
Rp3741
ag2
(g6
S'Sf\x02?'
p3742
tp3743
Rp3744
ag2
(g6
S'S\x9dp\xbe'
p3745
tp3746
Rp3747
ag2
(g6
S'\xb7\xe2\x8f\xbe'
p3748
tp3749
Rp3750
ag2
(g6
S'\xc1\xc1\x94>'
p3751
tp3752
Rp3753
ag2
(g6
S'*A`>'
p3754
tp3755
Rp3756
ag2
(g6
S'^\xe1\xdc\xbe'
p3757
tp3758
Rp3759
ag2
(g6
S'\xc3\xa5"\xbe'
p3760
tp3761
Rp3762
ag2
(g6
S'\x81+\x1b?'
p3763
tp3764
Rp3765
ag2
(g6
S'E\x9fR>'
p3766
tp3767
Rp3768
ag2
(g6
S'\xab\xd8\xcb\xbe'
p3769
tp3770
Rp3771
ag2
(g6
S'3\xfc\x8b='
p3772
tp3773
Rp3774
ag2
(g6
S'\xe4S\xc0\xbe'
p3775
tp3776
Rp3777
ag2
(g6
S'+:^>'
p3778
tp3779
Rp3780
ag2
(g6
S'\x9eF\xa5>'
p3781
tp3782
Rp3783
ag2
(g6
S'C\x9e\xc3\xbe'
p3784
tp3785
Rp3786
ag2
(g6
S'\xc84s\xbe'
p3787
tp3788
Rp3789
asI63
(lp3790
g2
(g6
S'6v\xca\xbe'
p3791
tp3792
Rp3793
ag2
(g6
S'\x0c\xb4\x94\xbe'
p3794
tp3795
Rp3796
ag2
(g6
S':\xeb\xd6\xbe'
p3797
tp3798
Rp3799
ag2
(g6
S'\x18\xf0\x92\xbe'
p3800
tp3801
Rp3802
ag2
(g6
S't\xd1\x91>'
p3803
tp3804
Rp3805
ag2
(g6
S'@0U\xbe'
p3806
tp3807
Rp3808
ag2
(g6
S'\xa5\xee\xd9\xbc'
p3809
tp3810
Rp3811
ag2
(g6
S'\x06\x8d\t?'
p3812
tp3813
Rp3814
ag2
(g6
S'\xf2W\n>'
p3815
tp3816
Rp3817
ag2
(g6
S'cf\x02\xbf'
p3818
tp3819
Rp3820
ag2
(g6
S'l\xd7\x87\xbe'
p3821
tp3822
Rp3823
ag2
(g6
S'1\xcd\x9f>'
p3824
tp3825
Rp3826
ag2
(g6
S'*\x86\\>'
p3827
tp3828
Rp3829
ag2
(g6
S'\x10\x0c\x84\xbd'
p3830
tp3831
Rp3832
ag2
(g6
S'!\x9b\x0b>'
p3833
tp3834
Rp3835
ag2
(g6
S'Bc\x1e\xbf'
p3836
tp3837
Rp3838
ag2
(g6
S' 0\xc0\xbc'
p3839
tp3840
Rp3841
ag2
(g6
S'a\xda\xa8>'
p3842
tp3843
Rp3844
ag2
(g6
S'\xa3\xcb\x94\xbe'
p3845
tp3846
Rp3847
ag2
(g6
S'\xd0y\xe7\xbe'
p3848
tp3849
Rp3850
asI64
(lp3851
g2
(g6
S'\xb8\xfd\xca\xbe'
p3852
tp3853
Rp3854
ag2
(g6
S'\xd8\xfb\x8b\xbe'
p3855
tp3856
Rp3857
ag2
(g6
S'\xb0*\x9f\xbe'
p3858
tp3859
Rp3860
ag2
(g6
S'j\xb7\xfb\xbe'
p3861
tp3862
Rp3863
ag2
(g6
S'\xc3\x84\xdb>'
p3864
tp3865
Rp3866
ag2
(g6
S'\xdbC9\xbe'
p3867
tp3868
Rp3869
ag2
(g6
S'Z\x92\x99\xbe'
p3870
tp3871
Rp3872
ag2
(g6
S'@\xc8\xa8>'
p3873
tp3874
Rp3875
ag2
(g6
S'\t\x8c\xb5='
p3876
tp3877
Rp3878
ag2
(g6
S'\x0b\xf2\xd2\xbe'
p3879
tp3880
Rp3881
ag2
(g6
S'\xd3[\xac\xbe'
p3882
tp3883
Rp3884
ag2
(g6
S'\t\x9f\r?'
p3885
tp3886
Rp3887
ag2
(g6
S'\x0b\xd6\x97>'
p3888
tp3889
Rp3890
ag2
(g6
S'*\xfd\xc2\xbe'
p3891
tp3892
Rp3893
ag2
(g6
S'V\x85r>'
p3894
tp3895
Rp3896
ag2
(g6
S')\xf8V\xbe'
p3897
tp3898
Rp3899
ag2
(g6
S'<&\xd2>'
p3900
tp3901
Rp3902
ag2
(g6
S'\x05-\x9e>'
p3903
tp3904
Rp3905
ag2
(g6
S'b\x1b\x91\xbe'
p3906
tp3907
Rp3908
ag2
(g6
S'@0\xca\xbe'
p3909
tp3910
Rp3911
asI65
(lp3912
g2
(g6
S'\x0c4\x13\xbf'
p3913
tp3914
Rp3915
ag2
(g6
S'\x8ea\x81\xbe'
p3916
tp3917
Rp3918
ag2
(g6
S']\xcd\xb0\xbe'
p3919
tp3920
Rp3921
ag2
(g6
S'\xac\xda\xd9\xbe'
p3922
tp3923
Rp3924
ag2
(g6
S'\xda\xfc\x80>'
p3925
tp3926
Rp3927
ag2
(g6
S'\xbf\xdf\xe2\xbe'
p3928
tp3929
Rp3930
ag2
(g6
S'x=h\xbc'
p3931
tp3932
Rp3933
ag2
(g6
S'\xbc\x10\xa4>'
p3934
tp3935
Rp3936
ag2
(g6
S'@\xbf\x85>'
p3937
tp3938
Rp3939
ag2
(g6
S'8L\xc4\xbe'
p3940
tp3941
Rp3942
ag2
(g6
S'\xe0C\xa0\xbe'
p3943
tp3944
Rp3945
ag2
(g6
S'\xbd\x03\x0e?'
p3946
tp3947
Rp3948
ag2
(g6
S'\xeaP\xcd>'
p3949
tp3950
Rp3951
ag2
(g6
S"t\xc1'\xbe"
p3952
tp3953
Rp3954
ag2
(g6
S'a\xdd\x9b>'
p3955
tp3956
Rp3957
ag2
(g6
S'\xb18\xdc\xbe'
p3958
tp3959
Rp3960
ag2
(g6
S'({\x98<'
p3961
tp3962
Rp3963
ag2
(g6
S'lx\xc0>'
p3964
tp3965
Rp3966
ag2
(g6
S'\x18s0\xbe'
p3967
tp3968
Rp3969
ag2
(g6
S'\xa4\x0el\xbe'
p3970
tp3971
Rp3972
asI66
(lp3973
g2
(g6
S'\x94u;\xbe'
p3974
tp3975
Rp3976
ag2
(g6
S'\xc28\xac\xbe'
p3977
tp3978
Rp3979
ag2
(g6
S'\x80\xcf\xc8\xbd'
p3980
tp3981
Rp3982
ag2
(g6
S'\xc2b\x92\xbd'
p3983
tp3984
Rp3985
ag2
(g6
S'\xde\x0c\xe0>'
p3986
tp3987
Rp3988
ag2
(g6
S'\x9a\xbc\xa8\xbd'
p3989
tp3990
Rp3991
ag2
(g6
S'\xbe\xc99\xbe'
p3992
tp3993
Rp3994
ag2
(g6
S'\xa9\x92\xe2>'
p3995
tp3996
Rp3997
ag2
(g6
S'\xa2RX\xbd'
p3998
tp3999
Rp4000
ag2
(g6
S'g[e\xbe'
p4001
tp4002
Rp4003
ag2
(g6
S' \x8c\x94\xbe'
p4004
tp4005
Rp4006
ag2
(g6
S'\x85\xcb+?'
p4007
tp4008
Rp4009
ag2
(g6
S'\x0e7\xce>'
p4010
tp4011
Rp4012
ag2
(g6
S'L\xe7\xaf\xbe'
p4013
tp4014
Rp4015
ag2
(g6
S'\xe2\x80r\xbd'
p4016
tp4017
Rp4018
ag2
(g6
S'X\xf0\xf0\xbe'
p4019
tp4020
Rp4021
ag2
(g6
S'\x16gY='
p4022
tp4023
Rp4024
ag2
(g6
S'\xcbH\x1e?'
p4025
tp4026
Rp4027
ag2
(g6
S'&gJ\xbe'
p4028
tp4029
Rp4030
ag2
(g6
S'C$\x91\xbe'
p4031
tp4032
Rp4033
asI67
(lp4034
g2
(g6
S'\xc8\x99\xad\xbe'
p4035
tp4036
Rp4037
ag2
(g6
S'\x8c\x8f\x11\xbf'
p4038
tp4039
Rp4040
ag2
(g6
S'SX5\xbe'
p4041
tp4042
Rp4043
ag2
(g6
S'\x80z\x16\xbd'
p4044
tp4045
Rp4046
ag2
(g6
S'\xd6m]>'
p4047
tp4048
Rp4049
ag2
(g6
S'L\xdcB\xbd'
p4050
tp4051
Rp4052
ag2
(g6
S'\xc7\xfd\x91\xbc'
p4053
tp4054
Rp4055
ag2
(g6
S'\xec\x7f\x08?'
p4056
tp4057
Rp4058
ag2
(g6
S'r\xe7?>'
p4059
tp4060
Rp4061
ag2
(g6
S'\x84b\xeb\xbe'
p4062
tp4063
Rp4064
ag2
(g6
S'\xca\x8b\x9c\xbe'
p4065
tp4066
Rp4067
ag2
(g6
S'R\xe7\xb6>'
p4068
tp4069
Rp4070
ag2
(g6
S'\x01qt>'
p4071
tp4072
Rp4073
ag2
(g6
S'\xbfy\xb7\xbe'
p4074
tp4075
Rp4076
ag2
(g6
S'z\xf2\xbd>'
p4077
tp4078
Rp4079
ag2
(g6
S'j\xa3\x13\xbf'
p4080
tp4081
Rp4082
ag2
(g6
S')P\x12\xbf'
p4083
tp4084
Rp4085
ag2
(g6
S'\x86\xd6\x9e>'
p4086
tp4087
Rp4088
ag2
(g6
S"\x98'\xd9\xbe"
p4089
tp4090
Rp4091
ag2
(g6
S'hgZ\xbe'
p4092
tp4093
Rp4094
asI68
(lp4095
g2
(g6
S'\x07"\x8d\xbe'
p4096
tp4097
Rp4098
ag2
(g6
S'R3\xae\xbd'
p4099
tp4100
Rp4101
ag2
(g6
S'\xab\xd7\x8d\xbe'
p4102
tp4103
Rp4104
ag2
(g6
S'\x8a\xd0\xf7\xbe'
p4105
tp4106
Rp4107
ag2
(g6
S'\xdd\x8b\x89>'
p4108
tp4109
Rp4110
ag2
(g6
S'\xea\xbd\xa0\xbe'
p4111
tp4112
Rp4113
ag2
(g6
S'Mz5\xbe'
p4114
tp4115
Rp4116
ag2
(g6
S'^\x9c\xc4>'
p4117
tp4118
Rp4119
ag2
(g6
S'W\x01\xac>'
p4120
tp4121
Rp4122
ag2
(g6
S'\x8fC\xd6\xbe'
p4123
tp4124
Rp4125
ag2
(g6
S'.\x80 \xbe'
p4126
tp4127
Rp4128
ag2
(g6
S'\xda\x8ds>'
p4129
tp4130
Rp4131
ag2
(g6
S'\xb40\xb4>'
p4132
tp4133
Rp4134
ag2
(g6
S'\xd2\x8e(\xbe'
p4135
tp4136
Rp4137
ag2
(g6
S'\x93\x04\xb4>'
p4138
tp4139
Rp4140
ag2
(g6
S'R^\xc0\xbe'
p4141
tp4142
Rp4143
ag2
(g6
S'\xa4FW>'
p4144
tp4145
Rp4146
ag2
(g6
S'V-\x0b?'
p4147
tp4148
Rp4149
ag2
(g6
S'\x94/\xbf\xbe'
p4150
tp4151
Rp4152
ag2
(g6
S'\xd0\x90\xa9\xbe'
p4153
tp4154
Rp4155
asI69
(lp4156
g2
(g6
S'\xce?\xa5\xbe'
p4157
tp4158
Rp4159
ag2
(g6
S'\xf3\x89\x9f\xbe'
p4160
tp4161
Rp4162
ag2
(g6
S'\xac\x11Q\xbe'
p4163
tp4164
Rp4165
ag2
(g6
S'\xca\xe3\xb1\xbe'
p4166
tp4167
Rp4168
ag2
(g6
S'\xf6\xc4\xa9>'
p4169
tp4170
Rp4171
ag2
(g6
S',\xda\xe8='
p4172
tp4173
Rp4174
ag2
(g6
S'\x85\xc0\xc9\xbe'
p4175
tp4176
Rp4177
ag2
(g6
S'w\xab\xd1='
p4178
tp4179
Rp4180
ag2
(g6
S'\x9c\xe2\r>'
p4181
tp4182
Rp4183
ag2
(g6
S'\xfd\xa9\n\xbf'
p4184
tp4185
Rp4186
ag2
(g6
S'\xeb\x813\xbe'
p4187
tp4188
Rp4189
ag2
(g6
S'\x8d\xc0\x00?'
p4190
tp4191
Rp4192
ag2
(g6
S'\x18\xa8\x05?'
p4193
tp4194
Rp4195
ag2
(g6
S'\xdco\x1d\xbd'
p4196
tp4197
Rp4198
ag2
(g6
S'\xbaT\x06\xbe'
p4199
tp4200
Rp4201
ag2
(g6
S'\x08o\x95\xbe'
p4202
tp4203
Rp4204
ag2
(g6
S'h\x8a\xd0\xbd'
p4205
tp4206
Rp4207
ag2
(g6
S"\xd3@'?"
p4208
tp4209
Rp4210
ag2
(g6
S'#C\xcf\xbe'
p4211
tp4212
Rp4213
ag2
(g6
S'\x1c\\\x94\xbe'
p4214
tp4215
Rp4216
asI70
(lp4217
g2
(g6
S'\xaa\xf3\xc0\xbe'
p4218
tp4219
Rp4220
ag2
(g6
S'be?\xbe'
p4221
tp4222
Rp4223
ag2
(g6
S'!F\xcb\xbe'
p4224
tp4225
Rp4226
ag2
(g6
S'>\xfa\x99\xbe'
p4227
tp4228
Rp4229
ag2
(g6
S')\x0f\x84>'
p4230
tp4231
Rp4232
ag2
(g6
S'f\xe0f\xbe'
p4233
tp4234
Rp4235
ag2
(g6
S'\x1d_\x19\xbe'
p4236
tp4237
Rp4238
ag2
(g6
S'n\x07\xab>'
p4239
tp4240
Rp4241
ag2
(g6
S'\xf8(n>'
p4242
tp4243
Rp4244
ag2
(g6
S'\xc8c\x84\xbe'
p4245
tp4246
Rp4247
ag2
(g6
S'\x08\xa4\xe5\xbe'
p4248
tp4249
Rp4250
ag2
(g6
S'\xe6|\x1b?'
p4251
tp4252
Rp4253
ag2
(g6
S' \xe8\x90>'
p4254
tp4255
Rp4256
ag2
(g6
S'\xeb\x14o\xbd'
p4257
tp4258
Rp4259
ag2
(g6
S'x\x85\xa8>'
p4260
tp4261
Rp4262
ag2
(g6
S'9\x9b\x00\xbf'
p4263
tp4264
Rp4265
ag2
(g6
S'&\xcf\xba\xbe'
p4266
tp4267
Rp4268
ag2
(g6
S'\x19\xb9\xb3>'
p4269
tp4270
Rp4271
ag2
(g6
S'X#\xb6\xbe'
p4272
tp4273
Rp4274
ag2
(g6
S'\x0bp\xd7\xbe'
p4275
tp4276
Rp4277
asI71
(lp4278
g2
(g6
S'\n\x86Q\xbe'
p4279
tp4280
Rp4281
ag2
(g6
S'\xcc\xe9G\xbe'
p4282
tp4283
Rp4284
ag2
(g6
S'\x86\xe4<\xbe'
p4285
tp4286
Rp4287
ag2
(g6
S'f\xa9\xc8\xbe'
p4288
tp4289
Rp4290
ag2
(g6
S'\xc4\xd0\x1a?'
p4291
tp4292
Rp4293
ag2
(g6
S'\xe0\xcc\xc2\xbd'
p4294
tp4295
Rp4296
ag2
(g6
S'R\x90\xc6\xbe'
p4297
tp4298
Rp4299
ag2
(g6
S'\x9e\xa3\x88>'
p4300
tp4301
Rp4302
ag2
(g6
S'\x1a\xba$>'
p4303
tp4304
Rp4305
ag2
(g6
S'\x92l\xcd\xbe'
p4306
tp4307
Rp4308
ag2
(g6
S'\xc8P\xf6\xbe'
p4309
tp4310
Rp4311
ag2
(g6
S'\xdd^\xaf>'
p4312
tp4313
Rp4314
ag2
(g6
S'\x8e\x9a\xbc>'
p4315
tp4316
Rp4317
ag2
(g6
S'i)\xd2\xbe'
p4318
tp4319
Rp4320
ag2
(g6
S'\xe3\x04\x8c\xbd'
p4321
tp4322
Rp4323
ag2
(g6
S'\x00\xa2\xa1\xbe'
p4324
tp4325
Rp4326
ag2
(g6
S't\x11N>'
p4327
tp4328
Rp4329
ag2
(g6
S'\xb8\\\xed>'
p4330
tp4331
Rp4332
ag2
(g6
S'*\xec`\xbe'
p4333
tp4334
Rp4335
ag2
(g6
S'3\x92\xf9\xbe'
p4336
tp4337
Rp4338
asI72
(lp4339
g2
(g6
S' \xf4m\xbe'
p4340
tp4341
Rp4342
ag2
(g6
S')\x95\xf9\xbd'
p4343
tp4344
Rp4345
ag2
(g6
S'"\xd4\xb7\xbe'
p4346
tp4347
Rp4348
ag2
(g6
S'\xc0\xf3\xea\xbd'
p4349
tp4350
Rp4351
ag2
(g6
S'bD\xaa>'
p4352
tp4353
Rp4354
ag2
(g6
S'W\x18\x0f\xbe'
p4355
tp4356
Rp4357
ag2
(g6
S'\xb1\xe84\xbe'
p4358
tp4359
Rp4360
ag2
(g6
S'\x9b\xd5\x7f>'
p4361
tp4362
Rp4363
ag2
(g6
S'\x0f\x16\xfb='
p4364
tp4365
Rp4366
ag2
(g6
S'*\xd0\xdd\xbe'
p4367
tp4368
Rp4369
ag2
(g6
S'*#\xb4\xbe'
p4370
tp4371
Rp4372
ag2
(g6
S'\x8c\xaa\xf9>'
p4373
tp4374
Rp4375
ag2
(g6
S'G\x02\xbd>'
p4376
tp4377
Rp4378
ag2
(g6
S'9\xcc\xf2\xbe'
p4379
tp4380
Rp4381
ag2
(g6
S'\x97?\xa8>'
p4382
tp4383
Rp4384
ag2
(g6
S"\x9d'\x1c\xbf"
p4385
tp4386
Rp4387
ag2
(g6
S'\x863\x13>'
p4388
tp4389
Rp4390
ag2
(g6
S'\xa8\xedw>'
p4391
tp4392
Rp4393
ag2
(g6
S'q\xbd(\xbe'
p4394
tp4395
Rp4396
ag2
(g6
S'\x08\xdb\xf6\xbe'
p4397
tp4398
Rp4399
asI73
(lp4400
g2
(g6
S'\xe1\xb9\xf1\xbe'
p4401
tp4402
Rp4403
ag2
(g6
S'\xa5\x8dQ\xbe'
p4404
tp4405
Rp4406
ag2
(g6
S'f\xbd\xc7\xbe'
p4407
tp4408
Rp4409
ag2
(g6
S'f\\X\xbe'
p4410
tp4411
Rp4412
ag2
(g6
S'=\xf7\x1d>'
p4413
tp4414
Rp4415
ag2
(g6
S'\x9fi+\xbe'
p4416
tp4417
Rp4418
ag2
(g6
S'w\x9b6\xbe'
p4419
tp4420
Rp4421
ag2
(g6
S'VrD>'
p4422
tp4423
Rp4424
ag2
(g6
S'`\xc6\xbd>'
p4425
tp4426
Rp4427
ag2
(g6
S'\xec\xdf\x06\xbf'
p4428
tp4429
Rp4430
ag2
(g6
S'\x8a\x93R\xbe'
p4431
tp4432
Rp4433
ag2
(g6
S'\xfe\x8d\xf5>'
p4434
tp4435
Rp4436
ag2
(g6
S'4W\xb5>'
p4437
tp4438
Rp4439
ag2
(g6
S'\xad\x9d\x05\xbe'
p4440
tp4441
Rp4442
ag2
(g6
S'\x81\xeb#='
p4443
tp4444
Rp4445
ag2
(g6
S'\xa8s\t\xbf'
p4446
tp4447
Rp4448
ag2
(g6
S'\xe6\x86w='
p4449
tp4450
Rp4451
ag2
(g6
S'\x10\x14\xd6>'
p4452
tp4453
Rp4454
ag2
(g6
S'\xfd \xaa\xbe'
p4455
tp4456
Rp4457
ag2
(g6
S'6\xde\x90\xbe'
p4458
tp4459
Rp4460
asI74
(lp4461
g2
(g6
S'l^\x10\xbe'
p4462
tp4463
Rp4464
ag2
(g6
S'\xac\x0e\x06\xbf'
p4465
tp4466
Rp4467
ag2
(g6
S'\xae\xd3#\xbf'
p4468
tp4469
Rp4470
ag2
(g6
S'^\x87\x8f\xbd'
p4471
tp4472
Rp4473
ag2
(g6
S'\x96\xe0\x0b\xbe'
p4474
tp4475
Rp4476
ag2
(g6
S'\xcfC\xba\xbe'
p4477
tp4478
Rp4479
ag2
(g6
S'\x83\xf6\x05='
p4480
tp4481
Rp4482
ag2
(g6
S'h\xd4\x83>'
p4483
tp4484
Rp4485
ag2
(g6
S'\x99\xdb\xcf>'
p4486
tp4487
Rp4488
ag2
(g6
S'\xe65\xc8\xbe'
p4489
tp4490
Rp4491
ag2
(g6
S'\xaa\xd0\x07\xbf'
p4492
tp4493
Rp4494
ag2
(g6
S'\x0f\xb0\xb2>'
p4495
tp4496
Rp4497
ag2
(g6
S'\x04\xc2\x10?'
p4498
tp4499
Rp4500
ag2
(g6
S'\xfa\xfb\x9c\xbe'
p4501
tp4502
Rp4503
ag2
(g6
S'\xc0\x85b='
p4504
tp4505
Rp4506
ag2
(g6
S'\x86m\x04\xbf'
p4507
tp4508
Rp4509
ag2
(g6
S'\xc2j\x03?'
p4510
tp4511
Rp4512
ag2
(g6
S'\x1e\xa2\x01?'
p4513
tp4514
Rp4515
ag2
(g6
S'\x94gt\xbe'
p4516
tp4517
Rp4518
ag2
(g6
S'\x07\xac\xc0\xbe'
p4519
tp4520
Rp4521
asI75
(lp4522
g2
(g6
S'7\xd0\xe1\xbe'
p4523
tp4524
Rp4525
ag2
(g6
S'\x1cT\xb4\xbe'
p4526
tp4527
Rp4528
ag2
(g6
S'\xb2\xad~\xbe'
p4529
tp4530
Rp4531
ag2
(g6
S'\x9c=\xb8\xbe'
p4532
tp4533
Rp4534
ag2
(g6
S'X}<>'
p4535
tp4536
Rp4537
ag2
(g6
S'p\x88\x01\xbe'
p4538
tp4539
Rp4540
ag2
(g6
S'\n9\xc1\xbe'
p4541
tp4542
Rp4543
ag2
(g6
S'\xb3\xee\x9d>'
p4544
tp4545
Rp4546
ag2
(g6
S'\xd10x>'
p4547
tp4548
Rp4549
ag2
(g6
S'\x92\x95\x0f\xbe'
p4550
tp4551
Rp4552
ag2
(g6
S'\x1e\xae\xd4\xbe'
p4553
tp4554
Rp4555
ag2
(g6
S';l\x9c>'
p4556
tp4557
Rp4558
ag2
(g6
S'SBg>'
p4559
tp4560
Rp4561
ag2
(g6
S'\xc7\xd5\xe0\xbe'
p4562
tp4563
Rp4564
ag2
(g6
S'\xbb\xde\xfa='
p4565
tp4566
Rp4567
ag2
(g6
S'0z\xce\xbe'
p4568
tp4569
Rp4570
ag2
(g6
S'h\xddB>'
p4571
tp4572
Rp4573
ag2
(g6
S's\xb1\xef>'
p4574
tp4575
Rp4576
ag2
(g6
S'\xdf\x11\xaf\xbe'
p4577
tp4578
Rp4579
ag2
(g6
S'8\xb3\x8f\xbe'
p4580
tp4581
Rp4582
asI76
(lp4583
g2
(g6
S'>W\xcb\xbe'
p4584
tp4585
Rp4586
ag2
(g6
S'3O\xd6\xbe'
p4587
tp4588
Rp4589
ag2
(g6
S'z@\r\xbf'
p4590
tp4591
Rp4592
ag2
(g6
S'\xd2_\xc7\xbd'
p4593
tp4594
Rp4595
ag2
(g6
S'\x8d\x0bS>'
p4596
tp4597
Rp4598
ag2
(g6
S'AW\x82\xbd'
p4599
tp4600
Rp4601
ag2
(g6
S']\x0c\x06='
p4602
tp4603
Rp4604
ag2
(g6
S'\xdb\x9c\xb1>'
p4605
tp4606
Rp4607
ag2
(g6
S'\xf1!\xaa>'
p4608
tp4609
Rp4610
ag2
(g6
S'\xff\xe6\x93\xbe'
p4611
tp4612
Rp4613
ag2
(g6
S'Hx\xac\xbe'
p4614
tp4615
Rp4616
ag2
(g6
S'\x0e\xb4\xaa>'
p4617
tp4618
Rp4619
ag2
(g6
S'X!)?'
p4620
tp4621
Rp4622
ag2
(g6
S'\xe5\xef\x12\xbe'
p4623
tp4624
Rp4625
ag2
(g6
S'\x98Y\x98<'
p4626
tp4627
Rp4628
ag2
(g6
S'\xf2\xe2\xe3\xbe'
p4629
tp4630
Rp4631
ag2
(g6
S'T\xb5\xd4='
p4632
tp4633
Rp4634
ag2
(g6
S'\xaek\xdd>'
p4635
tp4636
Rp4637
ag2
(g6
S'D\xc3U\xbe'
p4638
tp4639
Rp4640
ag2
(g6
S'd\xa3\xcb\xbe'
p4641
tp4642
Rp4643
asI77
(lp4644
g2
(g6
S'\x8c\xc2\xcd\xbe'
p4645
tp4646
Rp4647
ag2
(g6
S'\xbb\xbf\x11\xbe'
p4648
tp4649
Rp4650
ag2
(g6
S'*S\x92\xbe'
p4651
tp4652
Rp4653
ag2
(g6
S'\xa9\x0e\x1e\xbe'
p4654
tp4655
Rp4656
ag2
(g6
S'\xd1\xf0\xd9>'
p4657
tp4658
Rp4659
ag2
(g6
S'\x96G\xb3\xbe'
p4660
tp4661
Rp4662
ag2
(g6
S'p\x11z\xbe'
p4663
tp4664
Rp4665
ag2
(g6
S'\xd8\t\xc0>'
p4666
tp4667
Rp4668
ag2
(g6
S'$\xa0\xec>'
p4669
tp4670
Rp4671
ag2
(g6
S'\x91\xb3\xd2\xbe'
p4672
tp4673
Rp4674
ag2
(g6
S'\xa89\xa6\xbe'
p4675
tp4676
Rp4677
ag2
(g6
S'\x9c\x88\x90>'
p4678
tp4679
Rp4680
ag2
(g6
S'Ko\x85>'
p4681
tp4682
Rp4683
ag2
(g6
S'\x08\xba\x8a\xbe'
p4684
tp4685
Rp4686
ag2
(g6
S'\x9c\n\xb0>'
p4687
tp4688
Rp4689
ag2
(g6
S'".\x9b\xbe'
p4690
tp4691
Rp4692
ag2
(g6
S'%\x131\xbe'
p4693
tp4694
Rp4695
ag2
(g6
S'\xbc\xd9\xff>'
p4696
tp4697
Rp4698
ag2
(g6
S'\xc9\x03\xe4\xbe'
p4699
tp4700
Rp4701
ag2
(g6
S'\x99\x96d\xbe'
p4702
tp4703
Rp4704
asI78
(lp4705
g2
(g6
S'\xb0\x93\xb7\xbe'
p4706
tp4707
Rp4708
ag2
(g6
S'\xb1\xe7\x8c\xbe'
p4709
tp4710
Rp4711
ag2
(g6
S'\xe8$\xde\xbe'
p4712
tp4713
Rp4714
ag2
(g6
S'\xda\xe3\xc8\xbe'
p4715
tp4716
Rp4717
ag2
(g6
S'\xa6\xbe\x82='
p4718
tp4719
Rp4720
ag2
(g6
S'\xda\xa1\xc3\xbd'
p4721
tp4722
Rp4723
ag2
(g6
S'\x02\x8e\xc0\xbe'
p4724
tp4725
Rp4726
ag2
(g6
S'\x8c\xcc\xa4>'
p4727
tp4728
Rp4729
ag2
(g6
S'\xcd\x95\xb4>'
p4730
tp4731
Rp4732
ag2
(g6
S'\x9d\x16\x13\xbf'
p4733
tp4734
Rp4735
ag2
(g6
S'8\xbe\x86\xbe'
p4736
tp4737
Rp4738
ag2
(g6
S'?R\xcb>'
p4739
tp4740
Rp4741
ag2
(g6
S"'\xb2\xcc>"
p4742
tp4743
Rp4744
ag2
(g6
S'IF\x9d\xbe'
p4745
tp4746
Rp4747
ag2
(g6
S'\x1az~>'
p4748
tp4749
Rp4750
ag2
(g6
S'*\x88\xf2\xbe'
p4751
tp4752
Rp4753
ag2
(g6
S'/\xece\xbe'
p4754
tp4755
Rp4756
ag2
(g6
S'\xe4d\xcc>'
p4757
tp4758
Rp4759
ag2
(g6
S'\xde\x18M\xbe'
p4760
tp4761
Rp4762
ag2
(g6
S'\x1eo\x98\xbe'
p4763
tp4764
Rp4765
asI79
(lp4766
g2
(g6
S'l\xbd:\xbe'
p4767
tp4768
Rp4769
ag2
(g6
S'[,\x8b\xbe'
p4770
tp4771
Rp4772
ag2
(g6
S'\xe8\x11\xaf\xbe'
p4773
tp4774
Rp4775
ag2
(g6
S'r\xe9\xfa\xbe'
p4776
tp4777
Rp4778
ag2
(g6
S'\xb2\x92\xcf>'
p4779
tp4780
Rp4781
ag2
(g6
S'\x94.\x93\xbe'
p4782
tp4783
Rp4784
ag2
(g6
S'\x9f\xbeo\xbe'
p4785
tp4786
Rp4787
ag2
(g6
S'\x12\xa1\x84>'
p4788
tp4789
Rp4790
ag2
(g6
S'\xce?K>'
p4791
tp4792
Rp4793
ag2
(g6
S'\t\xe9\x99\xbe'
p4794
tp4795
Rp4796
ag2
(g6
S'\x8a\xc5\xbc\xbe'
p4797
tp4798
Rp4799
ag2
(g6
S'\x8c\xd7Y>'
p4800
tp4801
Rp4802
ag2
(g6
S'R\xf3z>'
p4803
tp4804
Rp4805
ag2
(g6
S'|\xa1\x82\xbe'
p4806
tp4807
Rp4808
ag2
(g6
S'\xd4\xf1%>'
p4809
tp4810
Rp4811
ag2
(g6
S'\xe2h\x07\xbf'
p4812
tp4813
Rp4814
ag2
(g6
S'\xc2|\xce\xbd'
p4815
tp4816
Rp4817
ag2
(g6
S',\xf9\x16?'
p4818
tp4819
Rp4820
ag2
(g6
S'6H\xa0\xbe'
p4821
tp4822
Rp4823
ag2
(g6
S'\x85\xc4n\xbe'
p4824
tp4825
Rp4826
asI80
(lp4827
g2
(g6
S'MT\xab\xbe'
p4828
tp4829
Rp4830
ag2
(g6
S'n\xa4G\xbe'
p4831
tp4832
Rp4833
ag2
(g6
S'\xa6\x16[\xbe'
p4834
tp4835
Rp4836
ag2
(g6
S'\x9fGM\xbe'
p4837
tp4838
Rp4839
ag2
(g6
S'U\xaf\x03>'
p4840
tp4841
Rp4842
ag2
(g6
S'\xd5\x10]\xbe'
p4843
tp4844
Rp4845
ag2
(g6
S'\xcb?F\xbe'
p4846
tp4847
Rp4848
ag2
(g6
S'~8\x0c?'
p4849
tp4850
Rp4851
ag2
(g6
S'\xf4QH='
p4852
tp4853
Rp4854
ag2
(g6
S'\xf3\x9e\xb1\xbe'
p4855
tp4856
Rp4857
ag2
(g6
S'\xb0\x90\xbf<'
p4858
tp4859
Rp4860
ag2
(g6
S"'\xaa\x13?"
p4861
tp4862
Rp4863
ag2
(g6
S'\xc8\x8c\xe4>'
p4864
tp4865
Rp4866
ag2
(g6
S'\xeca\x00\xbe'
p4867
tp4868
Rp4869
ag2
(g6
S'/\xdb\xa0>'
p4870
tp4871
Rp4872
ag2
(g6
S'\xd2\xb8\xa3\xbe'
p4873
tp4874
Rp4875
ag2
(g6
S'H\x81\xb6\xbc'
p4876
tp4877
Rp4878
ag2
(g6
S'r\xee\x07?'
p4879
tp4880
Rp4881
ag2
(g6
S'\xea\xac\xba\xbe'
p4882
tp4883
Rp4884
ag2
(g6
S'\xae\xaa\xc4\xbe'
p4885
tp4886
Rp4887
asI81
(lp4888
g2
(g6
S'i\x95\x8a\xbe'
p4889
tp4890
Rp4891
ag2
(g6
S'Gl\xe6\xbe'
p4892
tp4893
Rp4894
ag2
(g6
S'g\x1f\xa6\xbe'
p4895
tp4896
Rp4897
ag2
(g6
S'V]*\xbe'
p4898
tp4899
Rp4900
ag2
(g6
S':yW>'
p4901
tp4902
Rp4903
ag2
(g6
S'5;G\xbd'
p4904
tp4905
Rp4906
ag2
(g6
S'\xfc\xa6\xdb\xbd'
p4907
tp4908
Rp4909
ag2
(g6
S'\xe6&\xcb>'
p4910
tp4911
Rp4912
ag2
(g6
S')\xc5e>'
p4913
tp4914
Rp4915
ag2
(g6
S'4\xf5\xcf\xbe'
p4916
tp4917
Rp4918
ag2
(g6
S'\x1a\x08{\xbe'
p4919
tp4920
Rp4921
ag2
(g6
S'\xde\xaf\x0c?'
p4922
tp4923
Rp4924
ag2
(g6
S'\x10^\xd1>'
p4925
tp4926
Rp4927
ag2
(g6
S'\x91\xc1\xb4\xbe'
p4928
tp4929
Rp4930
ag2
(g6
S'\xd1O\xb9\xbd'
p4931
tp4932
Rp4933
ag2
(g6
S'\x88]\xde\xbe'
p4934
tp4935
Rp4936
ag2
(g6
S'8h\xe2\xbe'
p4937
tp4938
Rp4939
ag2
(g6
S'\x8a\xd6\xfa>'
p4940
tp4941
Rp4942
ag2
(g6
S'\xe9\xca\xcc\xbd'
p4943
tp4944
Rp4945
ag2
(g6
S'\xdd\x1a\xf9\xbe'
p4946
tp4947
Rp4948
asI82
(lp4949
g2
(g6
S'\x0c\x1c\xea\xbe'
p4950
tp4951
Rp4952
ag2
(g6
S'\xc6\xd5\x9e\xbe'
p4953
tp4954
Rp4955
ag2
(g6
S'\xeb\xd9\x06\xbf'
p4956
tp4957
Rp4958
ag2
(g6
S'V\xaa\xad\xbe'
p4959
tp4960
Rp4961
ag2
(g6
S'\x87\xd4W='
p4962
tp4963
Rp4964
ag2
(g6
S'\x1e\xc9@\xbe'
p4965
tp4966
Rp4967
ag2
(g6
S'\x8fl2\xbd'
p4968
tp4969
Rp4970
ag2
(g6
S'\xec\x1c\xc7>'
p4971
tp4972
Rp4973
ag2
(g6
S'"!@>'
p4974
tp4975
Rp4976
ag2
(g6
S'.I\xe9\xbe'
p4977
tp4978
Rp4979
ag2
(g6
S'\x90\xdc\xeb\xbe'
p4980
tp4981
Rp4982
ag2
(g6
S'\n\x80\x8d>'
p4983
tp4984
Rp4985
ag2
(g6
S'\x9bI\xfd>'
p4986
tp4987
Rp4988
ag2
(g6
S'C\xb1\xb0\xbe'
p4989
tp4990
Rp4991
ag2
(g6
S'\x00\xe3\xd3\xb9'
p4992
tp4993
Rp4994
ag2
(g6
S'\xec\xf1\x0e\xbf'
p4995
tp4996
Rp4997
ag2
(g6
S'\xc0\x94\x83\xbd'
p4998
tp4999
Rp5000
ag2
(g6
S'`\xb5\xcb>'
p5001
tp5002
Rp5003
ag2
(g6
S'\x8bP\x81\xbe'
p5004
tp5005
Rp5006
ag2
(g6
S'N`\xa0\xbe'
p5007
tp5008
Rp5009
asI83
(lp5010
g2
(g6
S'o\xec\x02\xbf'
p5011
tp5012
Rp5013
ag2
(g6
S'\x1e\xcf0\xbe'
p5014
tp5015
Rp5016
ag2
(g6
S'&\xe9\x82\xbe'
p5017
tp5018
Rp5019
ag2
(g6
S'Ir\x9d\xbe'
p5020
tp5021
Rp5022
ag2
(g6
S'\xb8\xf6q>'
p5023
tp5024
Rp5025
ag2
(g6
S'\x18\xd4\x0b\xbe'
p5026
tp5027
Rp5028
ag2
(g6
S'\x02\xa9K\xbe'
p5029
tp5030
Rp5031
ag2
(g6
S'\x02\x0b\xb6>'
p5032
tp5033
Rp5034
ag2
(g6
S'*\xa7\xd6>'
p5035
tp5036
Rp5037
ag2
(g6
S'\xfck\xb5\xbe'
p5038
tp5039
Rp5040
ag2
(g6
S'KL\xb2\xbd'
p5041
tp5042
Rp5043
ag2
(g6
S'w?\t>'
p5044
tp5045
Rp5046
ag2
(g6
S'\x15\x90\xf3>'
p5047
tp5048
Rp5049
ag2
(g6
S'\x9e\no\xbe'
p5050
tp5051
Rp5052
ag2
(g6
S'V\xa8\xa7>'
p5053
tp5054
Rp5055
ag2
(g6
S'~\x80\xbe\xbe'
p5056
tp5057
Rp5058
ag2
(g6
S'\n\xe39>'
p5059
tp5060
Rp5061
ag2
(g6
S'\xfa/\xf9>'
p5062
tp5063
Rp5064
ag2
(g6
S'$O\xfa\xbe'
p5065
tp5066
Rp5067
ag2
(g6
S'\x96.\xbc\xbe'
p5068
tp5069
Rp5070
asI84
(lp5071
g2
(g6
S'\xfe\xe9\xb0\xbe'
p5072
tp5073
Rp5074
ag2
(g6
S'\xde\xd0\xe3\xbd'
p5075
tp5076
Rp5077
ag2
(g6
S'*R\xaa\xbe'
p5078
tp5079
Rp5080
ag2
(g6
S'\x86\x9d\x04\xbf'
p5081
tp5082
Rp5083
ag2
(g6
S'\x88\x82\xbb>'
p5084
tp5085
Rp5086
ag2
(g6
S'\xe8\xe9\xdb\xbc'
p5087
tp5088
Rp5089
ag2
(g6
S'K\xf9\x01\xbf'
p5090
tp5091
Rp5092
ag2
(g6
S'\x0b\xc2\x95>'
p5093
tp5094
Rp5095
ag2
(g6
S'\xc6sL>'
p5096
tp5097
Rp5098
ag2
(g6
S'\xa0\x08\x87\xbe'
p5099
tp5100
Rp5101
ag2
(g6
S'\xfa\x9aY\xbe'
p5102
tp5103
Rp5104
ag2
(g6
S'\\-\xbd>'
p5105
tp5106
Rp5107
ag2
(g6
S'\x13\xaf\xec>'
p5108
tp5109
Rp5110
ag2
(g6
S'\x19*\xc4\xbe'
p5111
tp5112
Rp5113
ag2
(g6
S'\x9b\x96\x99>'
p5114
tp5115
Rp5116
ag2
(g6
S'\xa0\xfdA\xbe'
p5117
tp5118
Rp5119
ag2
(g6
S'\x90\x85\xa2>'
p5120
tp5121
Rp5122
ag2
(g6
S'\xd6\xa6\x9d>'
p5123
tp5124
Rp5125
ag2
(g6
S'\xe64\xac\xbe'
p5126
tp5127
Rp5128
ag2
(g6
S'o\x15\xda\xbe'
p5129
tp5130
Rp5131
asI85
(lp5132
g2
(g6
S'\xf6\xf6\xe2\xbe'
p5133
tp5134
Rp5135
ag2
(g6
S'\xbe\x9a\x0f\xbe'
p5136
tp5137
Rp5138
ag2
(g6
S'\xad\xe0\x92\xbe'
p5139
tp5140
Rp5141
ag2
(g6
S'\xe0d\xff\xbe'
p5142
tp5143
Rp5144
ag2
(g6
S'\xaaT\xa1>'
p5145
tp5146
Rp5147
ag2
(g6
S'\xad\xe9l\xbe'
p5148
tp5149
Rp5150
ag2
(g6
S'\xce\x15-\xbe'
p5151
tp5152
Rp5153
ag2
(g6
S'U\x93_>'
p5154
tp5155
Rp5156
ag2
(g6
S'\xb6\xf4O>'
p5157
tp5158
Rp5159
ag2
(g6
S'Nx\xee\xbe'
p5160
tp5161
Rp5162
ag2
(g6
S'"OW\xbe'
p5163
tp5164
Rp5165
ag2
(g6
S'\xf6\x00\x18?'
p5166
tp5167
Rp5168
ag2
(g6
S'\xe2\xa9\xd6>'
p5169
tp5170
Rp5171
ag2
(g6
S'\xcc\x85A\xbe'
p5172
tp5173
Rp5174
ag2
(g6
S' P\x86>'
p5175
tp5176
Rp5177
ag2
(g6
S'\x19.\x9f\xbe'
p5178
tp5179
Rp5180
ag2
(g6
S'\xa8\xab\x99\xbd'
p5181
tp5182
Rp5183
ag2
(g6
S'>\xfa\x1d?'
p5184
tp5185
Rp5186
ag2
(g6
S'z\xe7\x9e\xbe'
p5187
tp5188
Rp5189
ag2
(g6
S'5p\x81\xbe'
p5190
tp5191
Rp5192
asI86
(lp5193
g2
(g6
S'\x93\xe3\xfc\xbe'
p5194
tp5195
Rp5196
ag2
(g6
S'D\xe3\x19\xbe'
p5197
tp5198
Rp5199
ag2
(g6
S'\x9b\xe1\x04\xbe'
p5200
tp5201
Rp5202
ag2
(g6
S'8\xf8\x16\xbf'
p5203
tp5204
Rp5205
ag2
(g6
S'P\x94\xa6>'
p5206
tp5207
Rp5208
ag2
(g6
S'yna\xbd'
p5209
tp5210
Rp5211
ag2
(g6
S'\xf3\xe9"\xbe'
p5212
tp5213
Rp5214
ag2
(g6
S'\x82[\xcf>'
p5215
tp5216
Rp5217
ag2
(g6
S"'\xb6\xf8>"
p5218
tp5219
Rp5220
ag2
(g6
S'1\x19\x8f\xbe'
p5221
tp5222
Rp5223
ag2
(g6
S'\x1a\t\x1b\xbe'
p5224
tp5225
Rp5226
ag2
(g6
S'\xf1N\t?'
p5227
tp5228
Rp5229
ag2
(g6
S'\xdd\xcc\xc2>'
p5230
tp5231
Rp5232
ag2
(g6
S'\x01\xc0\x92\xbe'
p5233
tp5234
Rp5235
ag2
(g6
S'*F\xda>'
p5236
tp5237
Rp5238
ag2
(g6
S'\x0c0\xab\xbe'
p5239
tp5240
Rp5241
ag2
(g6
S'\x81\xd0\x92>'
p5242
tp5243
Rp5244
ag2
(g6
S'\xee\x08\xcf>'
p5245
tp5246
Rp5247
ag2
(g6
S'\xef\xefL\xbd'
p5248
tp5249
Rp5250
ag2
(g6
S'\xe4\xb0\xca\xbe'
p5251
tp5252
Rp5253
asI87
(lp5254
g2
(g6
S'\x9a\x04\r\xbf'
p5255
tp5256
Rp5257
ag2
(g6
S'M\x15\xa5\xbe'
p5258
tp5259
Rp5260
ag2
(g6
S'\xc7^\xde\xbd'
p5261
tp5262
Rp5263
ag2
(g6
S'\x8c\x8f\x89\xbe'
p5264
tp5265
Rp5266
ag2
(g6
S'\xf0B\xb7>'
p5267
tp5268
Rp5269
ag2
(g6
S'E\xefZ\xbe'
p5270
tp5271
Rp5272
ag2
(g6
S'\xa1\xd8\x9b\xbe'
p5273
tp5274
Rp5275
ag2
(g6
S'\xfb\x92\xd3>'
p5276
tp5277
Rp5278
ag2
(g6
S'\xbd\xf2\x9b>'
p5279
tp5280
Rp5281
ag2
(g6
S'12\x03\xbf'
p5282
tp5283
Rp5284
ag2
(g6
S'7Y\x05\xbf'
p5285
tp5286
Rp5287
ag2
(g6
S'\xbd\x82\xfd='
p5288
tp5289
Rp5290
ag2
(g6
S'NT\xdc>'
p5291
tp5292
Rp5293
ag2
(g6
S'\x96\x11\xb5\xbe'
p5294
tp5295
Rp5296
ag2
(g6
S"{'\xb4>"
p5297
tp5298
Rp5299
ag2
(g6
S')\xe6S\xbe'
p5300
tp5301
Rp5302
ag2
(g6
S'\x88\x1b\xc6>'
p5303
tp5304
Rp5305
ag2
(g6
S'\xd03\x9a>'
p5306
tp5307
Rp5308
ag2
(g6
S'\xe4g\x0c\xbd'
p5309
tp5310
Rp5311
ag2
(g6
S'\x80\x00\xf8\xbe'
p5312
tp5313
Rp5314
asI88
(lp5315
g2
(g6
S'\xa8\xbd\xd4\xbe'
p5316
tp5317
Rp5318
ag2
(g6
S'\xfe\x98\xd2\xbe'
p5319
tp5320
Rp5321
ag2
(g6
S'\xc23\x90\xbe'
p5322
tp5323
Rp5324
ag2
(g6
S'\xa4E\x89\xbe'
p5325
tp5326
Rp5327
ag2
(g6
S'\xaa\xb6\x1d>'
p5328
tp5329
Rp5330
ag2
(g6
S'j8\xe9\xbd'
p5331
tp5332
Rp5333
ag2
(g6
S'\xac\xf4{\xbe'
p5334
tp5335
Rp5336
ag2
(g6
S'\x0f\t\xb5>'
p5337
tp5338
Rp5339
ag2
(g6
S'\xb8\x18\xc9>'
p5340
tp5341
Rp5342
ag2
(g6
S'\xdd\xa6d\xbe'
p5343
tp5344
Rp5345
ag2
(g6
S'_\xda\x95\xbe'
p5346
tp5347
Rp5348
ag2
(g6
S'J\xc4\xde>'
p5349
tp5350
Rp5351
ag2
(g6
S'`\x85\xaf>'
p5352
tp5353
Rp5354
ag2
(g6
S'\xd3\xc2\xd0\xbe'
p5355
tp5356
Rp5357
ag2
(g6
S'[\x99\x0f>'
p5358
tp5359
Rp5360
ag2
(g6
S'\x9e\xb5\xdb\xbe'
p5361
tp5362
Rp5363
ag2
(g6
S'\xa4D\x18='
p5364
tp5365
Rp5366
ag2
(g6
S'\xd1\xe2\xc1>'
p5367
tp5368
Rp5369
ag2
(g6
S'\xaa-<\xbe'
p5370
tp5371
Rp5372
ag2
(g6
S'\x88Y\xfa\xbe'
p5373
tp5374
Rp5375
asI89
(lp5376
g2
(g6
S'\x8e\xc2\xd9\xbe'
p5377
tp5378
Rp5379
ag2
(g6
S'\x84\xfc$\xbe'
p5380
tp5381
Rp5382
ag2
(g6
S'@\x9b"\xbe'
p5383
tp5384
Rp5385
ag2
(g6
S'\xbee\x9f\xbe'
p5386
tp5387
Rp5388
ag2
(g6
S'_\x06\x11>'
p5389
tp5390
Rp5391
ag2
(g6
S'\xff\n\x93\xbe'
p5392
tp5393
Rp5394
ag2
(g6
S'\xee_\xde\xbe'
p5395
tp5396
Rp5397
ag2
(g6
S'\xd7\xcb\x00?'
p5398
tp5399
Rp5400
ag2
(g6
S'\x07\xcc\xb7>'
p5401
tp5402
Rp5403
ag2
(g6
S'\x15\xb8\x86\xbe'
p5404
tp5405
Rp5406
ag2
(g6
S'\xce[\x05\xbf'
p5407
tp5408
Rp5409
ag2
(g6
S'7}\x19?'
p5410
tp5411
Rp5412
ag2
(g6
S'p\xf4m>'
p5413
tp5414
Rp5415
ag2
(g6
S'RH7\xbe'
p5416
tp5417
Rp5418
ag2
(g6
S'x\xcf\x1e>'
p5419
tp5420
Rp5421
ag2
(g6
S'\x93\xca\xb5\xbe'
p5422
tp5423
Rp5424
ag2
(g6
S'x\xe8\x9b\xbd'
p5425
tp5426
Rp5427
ag2
(g6
S',\x00\xaa>'
p5428
tp5429
Rp5430
ag2
(g6
S'q]\xa0\xbe'
p5431
tp5432
Rp5433
ag2
(g6
S'^\xfb\x82\xbe'
p5434
tp5435
Rp5436
asI90
(lp5437
g2
(g6
S'\xfa\xaa\xfa\xbe'
p5438
tp5439
Rp5440
ag2
(g6
S'8pF\xbe'
p5441
tp5442
Rp5443
ag2
(g6
S'\xf0\xec7\xbe'
p5444
tp5445
Rp5446
ag2
(g6
S'\\\x8b\xb8\xbe'
p5447
tp5448
Rp5449
ag2
(g6
S'u}\xd2>'
p5450
tp5451
Rp5452
ag2
(g6
S'\x83\x9e\x94\xbe'
p5453
tp5454
Rp5455
ag2
(g6
S"\xc2;'\xbe"
p5456
tp5457
Rp5458
ag2
(g6
S'4c\xfb>'
p5459
tp5460
Rp5461
ag2
(g6
S'\xcbE3>'
p5462
tp5463
Rp5464
ag2
(g6
S'\x9d+\x92\xbe'
p5465
tp5466
Rp5467
ag2
(g6
S'\xaax\xf1\xbd'
p5468
tp5469
Rp5470
ag2
(g6
S'\x8b<\x10?'
p5471
tp5472
Rp5473
ag2
(g6
S'\xc8rn>'
p5474
tp5475
Rp5476
ag2
(g6
S'\xa5:\xca\xbe'
p5477
tp5478
Rp5479
ag2
(g6
S'\x7f\x80\x1f>'
p5480
tp5481
Rp5482
ag2
(g6
S':\xb2c\xbe'
p5483
tp5484
Rp5485
ag2
(g6
S'I)\x88>'
p5486
tp5487
Rp5488
ag2
(g6
S'\xd98\xf0>'
p5489
tp5490
Rp5491
ag2
(g6
S'[\xd7\xcf\xbe'
p5492
tp5493
Rp5494
ag2
(g6
S'v\xfc\xb0\xbe'
p5495
tp5496
Rp5497
asI91
(lp5498
g2
(g6
S'\x96p\x88\xbe'
p5499
tp5500
Rp5501
ag2
(g6
S'\xff1f\xbe'
p5502
tp5503
Rp5504
ag2
(g6
S'\x08;\x02\xbe'
p5505
tp5506
Rp5507
ag2
(g6
S'\xdd\x8b\xb3\xbe'
p5508
tp5509
Rp5510
ag2
(g6
S'\xca9s>'
p5511
tp5512
Rp5513
ag2
(g6
S'\xe2\xf8\xbf\xbe'
p5514
tp5515
Rp5516
ag2
(g6
S'\xc0L\x8d\xbe'
p5517
tp5518
Rp5519
ag2
(g6
S'\xc4\x99\xbe>'
p5520
tp5521
Rp5522
ag2
(g6
S'\xfa\x83\xdd='
p5523
tp5524
Rp5525
ag2
(g6
S'\x9b\xdd\x8a\xbe'
p5526
tp5527
Rp5528
ag2
(g6
S'\xf8\x15\x04\xbf'
p5529
tp5530
Rp5531
ag2
(g6
S'\x85\x0b\r?'
p5532
tp5533
Rp5534
ag2
(g6
S'\x9c*r>'
p5535
tp5536
Rp5537
ag2
(g6
S'\xefe\x9f\xbe'
p5538
tp5539
Rp5540
ag2
(g6
S'\xfe\x88i>'
p5541
tp5542
Rp5543
ag2
(g6
S'\x8a\xdb"\xbe'
p5544
tp5545
Rp5546
ag2
(g6
S'L\xb4\x8c>'
p5547
tp5548
Rp5549
ag2
(g6
S'\xd1|\x18?'
p5550
tp5551
Rp5552
ag2
(g6
S'\xa4M\xb6\xbe'
p5553
tp5554
Rp5555
ag2
(g6
S'/\xa2\xdc\xbe'
p5556
tp5557
Rp5558
asI92
(lp5559
g2
(g6
S'r!\xb4\xbe'
p5560
tp5561
Rp5562
ag2
(g6
S'\xcfFi\xbe'
p5563
tp5564
Rp5565
ag2
(g6
S'\xce\xbb\xac\xbe'
p5566
tp5567
Rp5568
ag2
(g6
S'\x9ew\xfb\xbe'
p5569
tp5570
Rp5571
ag2
(g6
S'\xfd\xe7\xd0>'
p5572
tp5573
Rp5574
ag2
(g6
S'\x8e;\xcf\xbd'
p5575
tp5576
Rp5577
ag2
(g6
S'!\xb4;\xbe'
p5578
tp5579
Rp5580
ag2
(g6
S'\xb0\xff\x1a>'
p5581
tp5582
Rp5583
ag2
(g6
S'\x81\xfe\xa7>'
p5584
tp5585
Rp5586
ag2
(g6
S'\xb4\x91\x01\xbf'
p5587
tp5588
Rp5589
ag2
(g6
S'o\xb7\xa2\xbd'
p5590
tp5591
Rp5592
ag2
(g6
S'"\x95\xf9>'
p5593
tp5594
Rp5595
ag2
(g6
S'\xaa\x1c\xc5>'
p5596
tp5597
Rp5598
ag2
(g6
S'\x06\xc2<\xbe'
p5599
tp5600
Rp5601
ag2
(g6
S'"\x1e\xbe<'
p5602
tp5603
Rp5604
ag2
(g6
S'\x82\xb6\x0c\xbf'
p5605
tp5606
Rp5607
ag2
(g6
S'\xfd\x05\x8f>'
p5608
tp5609
Rp5610
ag2
(g6
S'N7\x00?'
p5611
tp5612
Rp5613
ag2
(g6
S'\x96\x97y\xbe'
p5614
tp5615
Rp5616
ag2
(g6
S'\x1f\x8f\xa4\xbe'
p5617
tp5618
Rp5619
asI93
(lp5620
g2
(g6
S'o\xe3\x93\xbe'
p5621
tp5622
Rp5623
ag2
(g6
S' wV\xbe'
p5624
tp5625
Rp5626
ag2
(g6
S'X\xd2\xe4\xbd'
p5627
tp5628
Rp5629
ag2
(g6
S'\x00\x16\xc8:'
p5630
tp5631
Rp5632
ag2
(g6
S'\x87\x8a\xe2>'
p5633
tp5634
Rp5635
ag2
(g6
S'\x9e\xc0d\xbe'
p5636
tp5637
Rp5638
ag2
(g6
S'\x957\xcc\xbd'
p5639
tp5640
Rp5641
ag2
(g6
S'\xe8\xdf\xd7>'
p5642
tp5643
Rp5644
ag2
(g6
S'\xb0\x08/>'
p5645
tp5646
Rp5647
ag2
(g6
S'V\xb5{\xbe'
p5648
tp5649
Rp5650
ag2
(g6
S'ec\xa0\xbe'
p5651
tp5652
Rp5653
ag2
(g6
S'\x8e\x90\xae>'
p5654
tp5655
Rp5656
ag2
(g6
S'"\x82\xb4>'
p5657
tp5658
Rp5659
ag2
(g6
S'\xde\x00\xc9\xbe'
p5660
tp5661
Rp5662
ag2
(g6
S'\x04d\xff='
p5663
tp5664
Rp5665
ag2
(g6
S'\xf0\x01\x14\xbf'
p5666
tp5667
Rp5668
ag2
(g6
S'\x10\xb3\xc3\xbe'
p5669
tp5670
Rp5671
ag2
(g6
S'\x18\xe5\x1a?'
p5672
tp5673
Rp5674
ag2
(g6
S'<<\xa9\xbe'
p5675
tp5676
Rp5677
ag2
(g6
S']\xbb\x04\xbf'
p5678
tp5679
Rp5680
asI94
(lp5681
g2
(g6
S'4G\xb1\xbe'
p5682
tp5683
Rp5684
ag2
(g6
S'\xd6\x85\xcb\xbe'
p5685
tp5686
Rp5687
ag2
(g6
S'N\x16\x98\xbe'
p5688
tp5689
Rp5690
ag2
(g6
S'&2Y\xbd'
p5691
tp5692
Rp5693
ag2
(g6
S'\xa3\x05\xc6='
p5694
tp5695
Rp5696
ag2
(g6
S'd,,>'
p5697
tp5698
Rp5699
ag2
(g6
S'U`\x06>'
p5700
tp5701
Rp5702
ag2
(g6
S'#\xeb\x1e?'
p5703
tp5704
Rp5705
ag2
(g6
S'\xae\xd4\xed>'
p5706
tp5707
Rp5708
ag2
(g6
S':\xa7\x9e\xbe'
p5709
tp5710
Rp5711
ag2
(g6
S'a7\x0f\xbf'
p5712
tp5713
Rp5714
ag2
(g6
S'\x10\xc9\xc3>'
p5715
tp5716
Rp5717
ag2
(g6
S'\x8c\x17\x0b?'
p5718
tp5719
Rp5720
ag2
(g6
S'\xc4:\xb5\xbd'
p5721
tp5722
Rp5723
ag2
(g6
S'N\x82\xb6>'
p5724
tp5725
Rp5726
ag2
(g6
S'\x1f\x10\xa5\xbe'
p5727
tp5728
Rp5729
ag2
(g6
S'2\xe2\x85\xbe'
p5730
tp5731
Rp5732
ag2
(g6
S'\xc6\r\xd2>'
p5733
tp5734
Rp5735
ag2
(g6
S'\x14e\xc6\xbe'
p5736
tp5737
Rp5738
ag2
(g6
S'JH\x84\xbe'
p5739
tp5740
Rp5741
asI95
(lp5742
g2
(g6
S'44\xbb\xbe'
p5743
tp5744
Rp5745
ag2
(g6
S'\xc4\xf0\xfb\xbe'
p5746
tp5747
Rp5748
ag2
(g6
S'\xb5\xcdI\xbe'
p5749
tp5750
Rp5751
ag2
(g6
S'\xa5\x7f\xa0\xbe'
p5752
tp5753
Rp5754
ag2
(g6
S'It\x92>'
p5755
tp5756
Rp5757
ag2
(g6
S'\xceT\xa5='
p5758
tp5759
Rp5760
ag2
(g6
S'\\\xad;\xbc'
p5761
tp5762
Rp5763
ag2
(g6
S'\xac8\xf0>'
p5764
tp5765
Rp5766
ag2
(g6
S'Z#\xa1>'
p5767
tp5768
Rp5769
ag2
(g6
S'\xba\xd0\xc3\xbe'
p5770
tp5771
Rp5772
ag2
(g6
S'~\xcd\xe8\xbe'
p5773
tp5774
Rp5775
ag2
(g6
S'\xae\t\xe3>'
p5776
tp5777
Rp5778
ag2
(g6
S'(\n\xb2>'
p5779
tp5780
Rp5781
ag2
(g6
S'\xd3sF\xbe'
p5782
tp5783
Rp5784
ag2
(g6
S'\xa5\x04\xe9>'
p5785
tp5786
Rp5787
ag2
(g6
S'\xe6\x12\xc6\xbe'
p5788
tp5789
Rp5790
ag2
(g6
S'|N\x8b\xbe'
p5791
tp5792
Rp5793
ag2
(g6
S'\x9c\xb3\xa1>'
p5794
tp5795
Rp5796
ag2
(g6
S'd\x9d\xa0\xbe'
p5797
tp5798
Rp5799
ag2
(g6
S'\xe72\xb3\xbe'
p5800
tp5801
Rp5802
asI96
(lp5803
g2
(g6
S'\xbe\xc4\x99\xbe'
p5804
tp5805
Rp5806
ag2
(g6
S'\x9a\x983\xbe'
p5807
tp5808
Rp5809
ag2
(g6
S'\xc6\x1b\x89\xbe'
p5810
tp5811
Rp5812
ag2
(g6
S'\x0f\x12\xc2\xbe'
p5813
tp5814
Rp5815
ag2
(g6
S'\x87\x90\xd8>'
p5816
tp5817
Rp5818
ag2
(g6
S'&\xe8\xa5\xbe'
p5819
tp5820
Rp5821
ag2
(g6
S'\x84\x7f5\xbe'
p5822
tp5823
Rp5824
ag2
(g6
S'\x030\xb7>'
p5825
tp5826
Rp5827
ag2
(g6
S'b\xe8\x87>'
p5828
tp5829
Rp5830
ag2
(g6
S'<\xc6\xb6\xbe'
p5831
tp5832
Rp5833
ag2
(g6
S'z\xa3\xf2\xbe'
p5834
tp5835
Rp5836
ag2
(g6
S'v\xf8\xec>'
p5837
tp5838
Rp5839
ag2
(g6
S'\xda\x87\xee>'
p5840
tp5841
Rp5842
ag2
(g6
S'\x18\xe3\xe4\xbe'
p5843
tp5844
Rp5845
ag2
(g6
S'$\n\xc7>'
p5846
tp5847
Rp5848
ag2
(g6
S'\xdf\xb9\x02\xbe'
p5849
tp5850
Rp5851
ag2
(g6
S'@\xacL;'
p5852
tp5853
Rp5854
ag2
(g6
S'>\xd6\xd3>'
p5855
tp5856
Rp5857
ag2
(g6
S'\xf4\xcas\xbe'
p5858
tp5859
Rp5860
ag2
(g6
S'Qd/\xbe'
p5861
tp5862
Rp5863
asI97
(lp5864
g2
(g6
S'$j\xf1\xbe'
p5865
tp5866
Rp5867
ag2
(g6
S'\x8c\xb1\xa2\xbe'
p5868
tp5869
Rp5870
ag2
(g6
S'e\x12\x87\xbe'
p5871
tp5872
Rp5873
ag2
(g6
S'\xbeO2\xbe'
p5874
tp5875
Rp5876
ag2
(g6
S'\xa4^\xb2>'
p5877
tp5878
Rp5879
ag2
(g6
S'\xa66\xf5\xbd'
p5880
tp5881
Rp5882
ag2
(g6
S'\xb66^\xbe'
p5883
tp5884
Rp5885
ag2
(g6
S'\xd8\xbb\xb8>'
p5886
tp5887
Rp5888
ag2
(g6
S'!M\xa7>'
p5889
tp5890
Rp5891
ag2
(g6
S'I\xf5\x83\xbe'
p5892
tp5893
Rp5894
ag2
(g6
S'8\x81\x83\xbe'
p5895
tp5896
Rp5897
ag2
(g6
S'\x9e\x823>'
p5898
tp5899
Rp5900
ag2
(g6
S'\xe4\xc7\xe2>'
p5901
tp5902
Rp5903
ag2
(g6
S'\x8d\x0b\x81\xbe'
p5904
tp5905
Rp5906
ag2
(g6
S'@\x87\x85>'
p5907
tp5908
Rp5909
ag2
(g6
S'\x95(\xf3\xbe'
p5910
tp5911
Rp5912
ag2
(g6
S'\x91.\n>'
p5913
tp5914
Rp5915
ag2
(g6
S'w}\xca>'
p5916
tp5917
Rp5918
ag2
(g6
S'\xcf\xba\x86\xbe'
p5919
tp5920
Rp5921
ag2
(g6
S'oI\xf6\xbe'
p5922
tp5923
Rp5924
asI98
(lp5925
g2
(g6
S'\xfe\x93\x11\xbf'
p5926
tp5927
Rp5928
ag2
(g6
S',/\x81\xbe'
p5929
tp5930
Rp5931
ag2
(g6
S'\xd9z\xbc\xbe'
p5932
tp5933
Rp5934
ag2
(g6
S'8[\x84\xbc'
p5935
tp5936
Rp5937
ag2
(g6
S'\xde\xf4\xc0>'
p5938
tp5939
Rp5940
ag2
(g6
S'R\xe6\n\xbf'
p5941
tp5942
Rp5943
ag2
(g6
S'\x0e\xf2\x01\xbf'
p5944
tp5945
Rp5946
ag2
(g6
S'\xa8\x8c\xf2>'
p5947
tp5948
Rp5949
ag2
(g6
S'\xacm\x98>'
p5950
tp5951
Rp5952
ag2
(g6
S'1\xbc,\xbe'
p5953
tp5954
Rp5955
ag2
(g6
S'\x03\x80T\xbe'
p5956
tp5957
Rp5958
ag2
(g6
S'lR\x99>'
p5959
tp5960
Rp5961
ag2
(g6
S'\xf0\xf3\xca>'
p5962
tp5963
Rp5964
ag2
(g6
S'\xfb\xaeE\xbe'
p5965
tp5966
Rp5967
ag2
(g6
S'\xea\xee0>'
p5968
tp5969
Rp5970
ag2
(g6
S'J\xc2\xf0\xbe'
p5971
tp5972
Rp5973
ag2
(g6
S'i\xab_\xbe'
p5974
tp5975
Rp5976
ag2
(g6
S'L0\xe6>'
p5977
tp5978
Rp5979
ag2
(g6
S'\xfd\x1b\xc6\xbe'
p5980
tp5981
Rp5982
ag2
(g6
S'\x16\xd0\xab\xbd'
p5983
tp5984
Rp5985
asI99
(lp5986
g2
(g6
S'\xbe\x9d*\xbe'
p5987
tp5988
Rp5989
ag2
(g6
S'\xd4Ws\xbe'
p5990
tp5991
Rp5992
ag2
(g6
S'\xcf\xdd\xb5\xbe'
p5993
tp5994
Rp5995
ag2
(g6
S'\xf2?"\xbe'
p5996
tp5997
Rp5998
ag2
(g6
S'\xaa\xd8\x9e>'
p5999
tp6000
Rp6001
ag2
(g6
S'\xd5\xfc4\xbd'
p6002
tp6003
Rp6004
ag2
(g6
S'pl\xed\xbe'
p6005
tp6006
Rp6007
ag2
(g6
S'\xaeL\xe6>'
p6008
tp6009
Rp6010
ag2
(g6
S'\xbd:l='
p6011
tp6012
Rp6013
ag2
(g6
S'\xe8!\xdb\xbe'
p6014
tp6015
Rp6016
ag2
(g6
S'\xd2\xeb\xc1\xbe'
p6017
tp6018
Rp6019
ag2
(g6
S'\xcf\xc9\xcc>'
p6020
tp6021
Rp6022
ag2
(g6
S'\xf1\x80$?'
p6023
tp6024
Rp6025
ag2
(g6
S'\xbf\x98\xba\xbe'
p6026
tp6027
Rp6028
ag2
(g6
S'2O\x99>'
p6029
tp6030
Rp6031
ag2
(g6
S'P>\x92\xbe'
p6032
tp6033
Rp6034
ag2
(g6
S'$\xa7\n\xbd'
p6035
tp6036
Rp6037
ag2
(g6
S'\x00\xb7\x92>'
p6038
tp6039
Rp6040
ag2
(g6
S'\x06\x86\x9c\xbe'
p6041
tp6042
Rp6043
ag2
(g6
S'\xf8\xeb\x9c\xbe'
p6044
tp6045
Rp6046
asI100
(lp6047
g2
(g6
S'$\xd0\xf7\xbe'
p6048
tp6049
Rp6050
ag2
(g6
S'\x04x\xa6\xbe'
p6051
tp6052
Rp6053
ag2
(g6
S'Y1s\xbe'
p6054
tp6055
Rp6056
ag2
(g6
S'H\xa0\xf1\xbe'
p6057
tp6058
Rp6059
ag2
(g6
S'l\xb2\x00?'
p6060
tp6061
Rp6062
ag2
(g6
S'\x00\x18\xce\xbe'
p6063
tp6064
Rp6065
ag2
(g6
S'\xf1~W\xbe'
p6066
tp6067
Rp6068
ag2
(g6
S'\x8e\xdc\xf1>'
p6069
tp6070
Rp6071
ag2
(g6
S'\xa4\xee\x9a>'
p6072
tp6073
Rp6074
ag2
(g6
S'\x00h\xf5\xbe'
p6075
tp6076
Rp6077
ag2
(g6
S'V\x90;\xbe'
p6078
tp6079
Rp6080
ag2
(g6
S'T\x95J>'
p6081
tp6082
Rp6083
ag2
(g6
S'\x9bA\x85>'
p6084
tp6085
Rp6086
ag2
(g6
S'\xb8Q&\xbe'
p6087
tp6088
Rp6089
ag2
(g6
S'\xbe\x04\x19='
p6090
tp6091
Rp6092
ag2
(g6
S'>e\xbf\xbe'
p6093
tp6094
Rp6095
ag2
(g6
S'\xbdOc\xbe'
p6096
tp6097
Rp6098
ag2
(g6
S'l\xe9\xf1>'
p6099
tp6100
Rp6101
ag2
(g6
S'\xec\x95\xcb\xbd'
p6102
tp6103
Rp6104
ag2
(g6
S'\x9e\xc3\xaa\xbe'
p6105
tp6106
Rp6107
asI101
(lp6108
g2
(g6
S'>\x8d\xe1\xbe'
p6109
tp6110
Rp6111
ag2
(g6
S'\xb5\x82\xeb\xbe'
p6112
tp6113
Rp6114
ag2
(g6
S'\x12\xc9\xfe\xbe'
p6115
tp6116
Rp6117
ag2
(g6
S'\xa6\xd5\xaa\xbe'
p6118
tp6119
Rp6120
ag2
(g6
S'\xecE\x8c>'
p6121
tp6122
Rp6123
ag2
(g6
S'\xf2i\x85\xbe'
p6124
tp6125
Rp6126
ag2
(g6
S'\x0f\xca\x82\xbe'
p6127
tp6128
Rp6129
ag2
(g6
S'U;\xe8>'
p6130
tp6131
Rp6132
ag2
(g6
S'K\x85\x99>'
p6133
tp6134
Rp6135
ag2
(g6
S'AL\x88\xbe'
p6136
tp6137
Rp6138
ag2
(g6
S')\x94\xae\xbe'
p6139
tp6140
Rp6141
ag2
(g6
S'Z\x1b=>'
p6142
tp6143
Rp6144
ag2
(g6
S'\xed\xdd\xb7>'
p6145
tp6146
Rp6147
ag2
(g6
S'\xfd^4\xbe'
p6148
tp6149
Rp6150
ag2
(g6
S'\xd2\xd8t>'
p6151
tp6152
Rp6153
ag2
(g6
S'\xabs\xf8\xbe'
p6154
tp6155
Rp6156
ag2
(g6
S'8K\x8f>'
p6157
tp6158
Rp6159
ag2
(g6
S'T{\xd8>'
p6160
tp6161
Rp6162
ag2
(g6
S',5\x1d\xbe'
p6163
tp6164
Rp6165
ag2
(g6
S'\xdb<\xd9\xbe'
p6166
tp6167
Rp6168
asI102
(lp6169
g2
(g6
S'\x06X\xd1\xbe'
p6170
tp6171
Rp6172
ag2
(g6
S'+\xabJ\xbe'
p6173
tp6174
Rp6175
ag2
(g6
S':\x8b\x85\xbe'
p6176
tp6177
Rp6178
ag2
(g6
S'\xf2\xb1\x1a\xbe'
p6179
tp6180
Rp6181
ag2
(g6
S'{\xb3\xe8>'
p6182
tp6183
Rp6184
ag2
(g6
S'\xfb\xf9\xc0\xbd'
p6185
tp6186
Rp6187
ag2
(g6
S'\xa2K\xea\xbd'
p6188
tp6189
Rp6190
ag2
(g6
S'K\xed\x06?'
p6191
tp6192
Rp6193
ag2
(g6
S'\xa8\xe1v>'
p6194
tp6195
Rp6196
ag2
(g6
S'\xce\xcdv\xbe'
p6197
tp6198
Rp6199
ag2
(g6
S'L6\xd1\xbe'
p6200
tp6201
Rp6202
ag2
(g6
S'\xe6e\xfe>'
p6203
tp6204
Rp6205
ag2
(g6
S'.\xe0\x07?'
p6206
tp6207
Rp6208
ag2
(g6
S'\xf1v\xe1\xbd'
p6209
tp6210
Rp6211
ag2
(g6
S'fk\xd1<'
p6212
tp6213
Rp6214
ag2
(g6
S'\x16\xb1\xd3\xbe'
p6215
tp6216
Rp6217
ag2
(g6
S'xm7\xbd'
p6218
tp6219
Rp6220
ag2
(g6
S'\xc4\xb1\x9b>'
p6221
tp6222
Rp6223
ag2
(g6
S"\x15'\x9a\xbe"
p6224
tp6225
Rp6226
ag2
(g6
S'>\xc9\xe2\xbe'
p6227
tp6228
Rp6229
asI103
(lp6230
g2
(g6
S'\x84;\xb9\xbe'
p6231
tp6232
Rp6233
ag2
(g6
S'@\xa5\xdb\xbd'
p6234
tp6235
Rp6236
ag2
(g6
S'\xff@\x82\xbe'
p6237
tp6238
Rp6239
ag2
(g6
S'r\xc8\xf8\xbe'
p6240
tp6241
Rp6242
ag2
(g6
S'\x1aR\x02>'
p6243
tp6244
Rp6245
ag2
(g6
S'\xb5De\xbe'
p6246
tp6247
Rp6248
ag2
(g6
S'\xb5M\x8f\xbe'
p6249
tp6250
Rp6251
ag2
(g6
S'{J\xa2>'
p6252
tp6253
Rp6254
ag2
(g6
S'\xd1\xa5C>'
p6255
tp6256
Rp6257
ag2
(g6
S'\xf4\\\x87\xbe'
p6258
tp6259
Rp6260
ag2
(g6
S'\xb2\xb7\xa3\xbe'
p6261
tp6262
Rp6263
ag2
(g6
S'y\xfa\xd7>'
p6264
tp6265
Rp6266
ag2
(g6
S'\xdf\xfd\x92>'
p6267
tp6268
Rp6269
ag2
(g6
S'\xfaH\xa0\xbe'
p6270
tp6271
Rp6272
ag2
(g6
S'\xf0_\x06>'
p6273
tp6274
Rp6275
ag2
(g6
S'\x83N\xad\xbe'
p6276
tp6277
Rp6278
ag2
(g6
S'\x95\x08\xa8='
p6279
tp6280
Rp6281
ag2
(g6
S'F\x87\xa6>'
p6282
tp6283
Rp6284
ag2
(g6
S'\xd6o\x8f\xbe'
p6285
tp6286
Rp6287
ag2
(g6
S'\x05\x04\xf5\xbe'
p6288
tp6289
Rp6290
asI104
(lp6291
g2
(g6
S'=\x06\x87\xbe'
p6292
tp6293
Rp6294
ag2
(g6
S'\xec\x14\x94\xbe'
p6295
tp6296
Rp6297
ag2
(g6
S'\x01\xa4\xc9\xbe'
p6298
tp6299
Rp6300
ag2
(g6
S'\x1c\x8d\xef\xbe'
p6301
tp6302
Rp6303
ag2
(g6
S'5\xc7\xe9>'
p6304
tp6305
Rp6306
ag2
(g6
S'\xb0\xf6\xf7\xbc'
p6307
tp6308
Rp6309
ag2
(g6
S'kZ#\xbe'
p6310
tp6311
Rp6312
ag2
(g6
S'\x98\xdcz>'
p6313
tp6314
Rp6315
ag2
(g6
S'L\xdf\xb9='
p6316
tp6317
Rp6318
ag2
(g6
S'\x80/\xe8\xbe'
p6319
tp6320
Rp6321
ag2
(g6
S'\x9do\x01\xbf'
p6322
tp6323
Rp6324
ag2
(g6
S'z\xbd\xdb>'
p6325
tp6326
Rp6327
ag2
(g6
S"\x92\x16'>"
p6328
tp6329
Rp6330
ag2
(g6
S'Gb\xd3\xbe'
p6331
tp6332
Rp6333
ag2
(g6
S'JZj>'
p6334
tp6335
Rp6336
ag2
(g6
S'\x0c4\x18\xbf'
p6337
tp6338
Rp6339
ag2
(g6
S'\xda\xd8;='
p6340
tp6341
Rp6342
ag2
(g6
S'\x9cn\x99>'
p6343
tp6344
Rp6345
ag2
(g6
S"\xfa'\x12="
p6346
tp6347
Rp6348
ag2
(g6
S'@\x80\x03\xbf'
p6349
tp6350
Rp6351
asI105
(lp6352
g2
(g6
S'\\\xe1\x10\xbf'
p6353
tp6354
Rp6355
ag2
(g6
S'\x9e\xff\xca\xbe'
p6356
tp6357
Rp6358
ag2
(g6
S'\xe2)\xc0='
p6359
tp6360
Rp6361
ag2
(g6
S'\xe4\xfb\x98\xbe'
p6362
tp6363
Rp6364
ag2
(g6
S'\xb7\x99\xbd>'
p6365
tp6366
Rp6367
ag2
(g6
S'\xc0\x15\x8c\xbe'
p6368
tp6369
Rp6370
ag2
(g6
S'\xa6W\xb8\xbe'
p6371
tp6372
Rp6373
ag2
(g6
S'\xc6\xd0\xc3>'
p6374
tp6375
Rp6376
ag2
(g6
S'\x8e(Y>'
p6377
tp6378
Rp6379
ag2
(g6
S'B \xf2\xbe'
p6380
tp6381
Rp6382
ag2
(g6
S'\xe9\xdb\x85\xbe'
p6383
tp6384
Rp6385
ag2
(g6
S'!\x1c\x15?'
p6386
tp6387
Rp6388
ag2
(g6
S'\xf2\xd7h>'
p6389
tp6390
Rp6391
ag2
(g6
S'\xba\xb9P\xbe'
p6392
tp6393
Rp6394
ag2
(g6
S'k\xa0\xc5>'
p6395
tp6396
Rp6397
ag2
(g6
S'\xa2\xd6\xf5\xbe'
p6398
tp6399
Rp6400
ag2
(g6
S'ni\t='
p6401
tp6402
Rp6403
ag2
(g6
S'l\xd1\xe5>'
p6404
tp6405
Rp6406
ag2
(g6
S'\xe6\x7f\x02\xbe'
p6407
tp6408
Rp6409
ag2
(g6
S'\x05V\x15\xbe'
p6410
tp6411
Rp6412
asI106
(lp6413
g2
(g6
S'\x9d^\xc4\xbe'
p6414
tp6415
Rp6416
ag2
(g6
S'i\xb8\xe5\xbe'
p6417
tp6418
Rp6419
ag2
(g6
S'\x92\xbc\xd7\xbe'
p6420
tp6421
Rp6422
ag2
(g6
S'\xae\x9c\x18\xbd'
p6423
tp6424
Rp6425
ag2
(g6
S'\xdap$>'
p6426
tp6427
Rp6428
ag2
(g6
S'\r\xe8%\xbe'
p6429
tp6430
Rp6431
ag2
(g6
S'\xdf\x06g\xbd'
p6432
tp6433
Rp6434
ag2
(g6
S'\x1c)\xfb>'
p6435
tp6436
Rp6437
ag2
(g6
S'\xb9V\t?'
p6438
tp6439
Rp6440
ag2
(g6
S'\xac\xf8\xef\xbe'
p6441
tp6442
Rp6443
ag2
(g6
S'\x9ar\xd9\xbe'
p6444
tp6445
Rp6446
ag2
(g6
S'<\x94C>'
p6447
tp6448
Rp6449
ag2
(g6
S'_\xb0\n?'
p6450
tp6451
Rp6452
ag2
(g6
S'\xcc\xa2<\xbe'
p6453
tp6454
Rp6455
ag2
(g6
S'\xb3|\xc1='
p6456
tp6457
Rp6458
ag2
(g6
S'\x0e\xa7\xb3\xbe'
p6459
tp6460
Rp6461
ag2
(g6
S'0\x0bL\xbc'
p6462
tp6463
Rp6464
ag2
(g6
S'\xb6&\xaf>'
p6465
tp6466
Rp6467
ag2
(g6
S'\xd1\xd1\xb0\xbe'
p6468
tp6469
Rp6470
ag2
(g6
S'4R\xd9\xbe'
p6471
tp6472
Rp6473
asI107
(lp6474
g2
(g6
S'\xa1\xd4\xe9\xbe'
p6475
tp6476
Rp6477
ag2
(g6
S'\xd1\x9e\xed\xbe'
p6478
tp6479
Rp6480
ag2
(g6
S'P\xfa\x87\xbe'
p6481
tp6482
Rp6483
ag2
(g6
S'\xb2\xdd\x86\xbe'
p6484
tp6485
Rp6486
ag2
(g6
S'd\x89\x0b?'
p6487
tp6488
Rp6489
ag2
(g6
S'\x04\xb3V\xbc'
p6490
tp6491
Rp6492
ag2
(g6
S'\ru\x04\xbf'
p6493
tp6494
Rp6495
ag2
(g6
S'\xc6\xf4\xc0>'
p6496
tp6497
Rp6498
ag2
(g6
S'\x97u\x1f>'
p6499
tp6500
Rp6501
ag2
(g6
S'\xca\x1d3\xbe'
p6502
tp6503
Rp6504
ag2
(g6
S'%\x83\x90\xbe'
p6505
tp6506
Rp6507
ag2
(g6
S'\x0b\xa4\x9d>'
p6508
tp6509
Rp6510
ag2
(g6
S'\x9a\x06\xc2>'
p6511
tp6512
Rp6513
ag2
(g6
S'l\x19d\xbe'
p6514
tp6515
Rp6516
ag2
(g6
S'\xe6\xb5y>'
p6517
tp6518
Rp6519
ag2
(g6
S'\xae \xcf\xbe'
p6520
tp6521
Rp6522
ag2
(g6
S"\xe2\x08'>"
p6523
tp6524
Rp6525
ag2
(g6
S'\x17\x98\x02?'
p6526
tp6527
Rp6528
ag2
(g6
S'\x83\xe9\xa0\xbe'
p6529
tp6530
Rp6531
ag2
(g6
S'\xb8\x10\x8d\xbe'
p6532
tp6533
Rp6534
asI108
(lp6535
g2
(g6
S'\xfb\x18\x85\xbe'
p6536
tp6537
Rp6538
ag2
(g6
S'\nt\xae\xbd'
p6539
tp6540
Rp6541
ag2
(g6
S"'@\xe9\xbe"
p6542
tp6543
Rp6544
ag2
(g6
S'\x10\xbf\r\xbe'
p6545
tp6546
Rp6547
ag2
(g6
S'\x80\xc4[>'
p6548
tp6549
Rp6550
ag2
(g6
S'\xaa_}\xbe'
p6551
tp6552
Rp6553
ag2
(g6
S'\x1dg\xb5\xbe'
p6554
tp6555
Rp6556
ag2
(g6
S'2(\xdf>'
p6557
tp6558
Rp6559
ag2
(g6
S'\xbe\x9aY>'
p6560
tp6561
Rp6562
ag2
(g6
S'\x94\x7f\xf5\xbe'
p6563
tp6564
Rp6565
ag2
(g6
S'm\xc6\xf3\xbd'
p6566
tp6567
Rp6568
ag2
(g6
S'\x16\xf4\xca>'
p6569
tp6570
Rp6571
ag2
(g6
S'\x95$\x88>'
p6572
tp6573
Rp6574
ag2
(g6
S'\x91Iu\xbe'
p6575
tp6576
Rp6577
ag2
(g6
S'y\xea\xdd>'
p6578
tp6579
Rp6580
ag2
(g6
S"pD'\xbf"
p6581
tp6582
Rp6583
ag2
(g6
S'\xed\x1d\x0c>'
p6584
tp6585
Rp6586
ag2
(g6
S'-\x8f\x04?'
p6587
tp6588
Rp6589
ag2
(g6
S'\x8b\xd0\xde\xbd'
p6590
tp6591
Rp6592
ag2
(g6
S'\x1d\xf9\xe0\xbe'
p6593
tp6594
Rp6595
asI109
(lp6596
g2
(g6
S'Y\x84\x8e\xbe'
p6597
tp6598
Rp6599
ag2
(g6
S'\xa1\x95\xfb\xbe'
p6600
tp6601
Rp6602
ag2
(g6
S'\xfc\xd1\xd0\xbd'
p6603
tp6604
Rp6605
ag2
(g6
S'x"A\xbe'
p6606
tp6607
Rp6608
ag2
(g6
S'\xc5.\x9c>'
p6609
tp6610
Rp6611
ag2
(g6
S'GJP\xbe'
p6612
tp6613
Rp6614
ag2
(g6
S'@e\xa2;'
p6615
tp6616
Rp6617
ag2
(g6
S'`\x8c\x05?'
p6618
tp6619
Rp6620
ag2
(g6
S'\xb5j\xd9='
p6621
tp6622
Rp6623
ag2
(g6
S'dz\xd1\xbe'
p6624
tp6625
Rp6626
ag2
(g6
S'6\x7f\x08\xbf'
p6627
tp6628
Rp6629
ag2
(g6
S'\x928\xb5>'
p6630
tp6631
Rp6632
ag2
(g6
S'k\xaf\xfd>'
p6633
tp6634
Rp6635
ag2
(g6
S'\x92\xce9\xbe'
p6636
tp6637
Rp6638
ag2
(g6
S'\x86=\xc2>'
p6639
tp6640
Rp6641
ag2
(g6
S'\x0c\xe0\xe7\xbe'
p6642
tp6643
Rp6644
ag2
(g6
S'fv\xb7\xbe'
p6645
tp6646
Rp6647
ag2
(g6
S'd\xfd\xfc>'
p6648
tp6649
Rp6650
ag2
(g6
S'3\xca\xea\xbd'
p6651
tp6652
Rp6653
ag2
(g6
S'`q\xa5\xbe'
p6654
tp6655
Rp6656
asI110
(lp6657
g2
(g6
S'jy\x15\xbe'
p6658
tp6659
Rp6660
ag2
(g6
S'\xa3;\x9f\xbe'
p6661
tp6662
Rp6663
ag2
(g6
S'Da\x88\xbe'
p6664
tp6665
Rp6666
ag2
(g6
S'\x1e=^\xbe'
p6667
tp6668
Rp6669
ag2
(g6
S'r\xa6$='
p6670
tp6671
Rp6672
ag2
(g6
S'\xbe\xd8\x8e='
p6673
tp6674
Rp6675
ag2
(g6
S'\x89\x81O\xbe'
p6676
tp6677
Rp6678
ag2
(g6
S'<\xb6\x84>'
p6679
tp6680
Rp6681
ag2
(g6
S'p\x88X>'
p6682
tp6683
Rp6684
ag2
(g6
S'?T\xa5\xbe'
p6685
tp6686
Rp6687
ag2
(g6
S'z\xec\xcf\xbe'
p6688
tp6689
Rp6690
ag2
(g6
S'/b\r?'
p6691
tp6692
Rp6693
ag2
(g6
S'\xaeQ\xb4>'
p6694
tp6695
Rp6696
ag2
(g6
S'\x88\x88$\xbe'
p6697
tp6698
Rp6699
ag2
(g6
S'oZ\x9d>'
p6700
tp6701
Rp6702
ag2
(g6
S'\xaf}\x02\xbf'
p6703
tp6704
Rp6705
ag2
(g6
S'\xf9\x1b\x96='
p6706
tp6707
Rp6708
ag2
(g6
S'\xd6\xbc\xc6>'
p6709
tp6710
Rp6711
ag2
(g6
S'\xb9w\xdf\xbe'
p6712
tp6713
Rp6714
ag2
(g6
S'S\xcd\xf6\xbe'
p6715
tp6716
Rp6717
asI111
(lp6718
g2
(g6
S'~G\xf9\xbe'
p6719
tp6720
Rp6721
ag2
(g6
S'\xc3\xfb\x8d\xbd'
p6722
tp6723
Rp6724
ag2
(g6
S'\xce\x0e\xa5\xbe'
p6725
tp6726
Rp6727
ag2
(g6
S'\xe3\x1f\xab\xbe'
p6728
tp6729
Rp6730
ag2
(g6
S'6\xc0\xa9>'
p6731
tp6732
Rp6733
ag2
(g6
S'\x19\xec\x8a\xbe'
p6734
tp6735
Rp6736
ag2
(g6
S'\x01C\x92\xbe'
p6737
tp6738
Rp6739
ag2
(g6
S'/\xec\xa1>'
p6740
tp6741
Rp6742
ag2
(g6
S'y\xc5\xde>'
p6743
tp6744
Rp6745
ag2
(g6
S'P\xc8\xc5\xbe'
p6746
tp6747
Rp6748
ag2
(g6
S'\xfc\xfa3\xbe'
p6749
tp6750
Rp6751
ag2
(g6
S'Q\x92\x8d>'
p6752
tp6753
Rp6754
ag2
(g6
S'\xc0W\xc2>'
p6755
tp6756
Rp6757
ag2
(g6
S'\xfe\xa9\xea\xbe'
p6758
tp6759
Rp6760
ag2
(g6
S't\x83G>'
p6761
tp6762
Rp6763
ag2
(g6
S'\x8c\x96\xea\xbe'
p6764
tp6765
Rp6766
ag2
(g6
S'\xc0l\xa7\xbd'
p6767
tp6768
Rp6769
ag2
(g6
S'0\xf7k>'
p6770
tp6771
Rp6772
ag2
(g6
S'\xf0\xb8\x88\xbe'
p6773
tp6774
Rp6775
ag2
(g6
S'b\x1f\x04\xbf'
p6776
tp6777
Rp6778
asI112
(lp6779
g2
(g6
S'h\x8d\x0b\xbf'
p6780
tp6781
Rp6782
ag2
(g6
S'B\xd9\x9e\xbe'
p6783
tp6784
Rp6785
ag2
(g6
S'6S\xce\xbd'
p6786
tp6787
Rp6788
ag2
(g6
S'\xe8I\x9c\xbe'
p6789
tp6790
Rp6791
ag2
(g6
S',J\xe9>'
p6792
tp6793
Rp6794
ag2
(g6
S'\xdfU\x13\xbe'
p6795
tp6796
Rp6797
ag2
(g6
S'\xd8\x96\\\xbe'
p6798
tp6799
Rp6800
ag2
(g6
S'\xaf\xf4\xcd>'
p6801
tp6802
Rp6803
ag2
(g6
S'xu\x84>'
p6804
tp6805
Rp6806
ag2
(g6
S'@\xf4\x80\xbe'
p6807
tp6808
Rp6809
ag2
(g6
S'\x1dB\x01\xbe'
p6810
tp6811
Rp6812
ag2
(g6
S'\xc4\xcc\xfc>'
p6813
tp6814
Rp6815
ag2
(g6
S'f\x1e\xcb>'
p6816
tp6817
Rp6818
ag2
(g6
S'\x0e#\xbe\xbe'
p6819
tp6820
Rp6821
ag2
(g6
S'\xa8\xa0]>'
p6822
tp6823
Rp6824
ag2
(g6
S'\xe0\x9a\x18\xbf'
p6825
tp6826
Rp6827
ag2
(g6
S'\xbe2<>'
p6828
tp6829
Rp6830
ag2
(g6
S'\x88\x00\xea>'
p6831
tp6832
Rp6833
ag2
(g6
S'\xbdq\xa9\xbe'
p6834
tp6835
Rp6836
ag2
(g6
S'C\xbe\xe7\xbd'
p6837
tp6838
Rp6839
asI113
(lp6840
g2
(g6
S'o>\xe3\xbe'
p6841
tp6842
Rp6843
ag2
(g6
S'\xa7\r\xb9\xbd'
p6844
tp6845
Rp6846
ag2
(g6
S'X@d\xbe'
p6847
tp6848
Rp6849
ag2
(g6
S'n\x13\xca\xbe'
p6850
tp6851
Rp6852
ag2
(g6
S'h\x81\x1a>'
p6853
tp6854
Rp6855
ag2
(g6
S'+\xf6=\xbe'
p6856
tp6857
Rp6858
ag2
(g6
S'zo\x17\xbe'
p6859
tp6860
Rp6861
ag2
(g6
S'\x13x\xc4>'
p6862
tp6863
Rp6864
ag2
(g6
S'fn|>'
p6865
tp6866
Rp6867
ag2
(g6
S'\xb8\x0c\x08\xbf'
p6868
tp6869
Rp6870
ag2
(g6
S'\xa5\xfab\xbe'
p6871
tp6872
Rp6873
ag2
(g6
S'\xe2\xaf\xd3>'
p6874
tp6875
Rp6876
ag2
(g6
S'\x1d\x0e\xee>'
p6877
tp6878
Rp6879
ag2
(g6
S'\x85k\xc7\xbe'
p6880
tp6881
Rp6882
ag2
(g6
S'\xa4\xa3\xc0>'
p6883
tp6884
Rp6885
ag2
(g6
S'\x83\x1f\t\xbf'
p6886
tp6887
Rp6888
ag2
(g6
S'\xe9\xc3\xa3='
p6889
tp6890
Rp6891
ag2
(g6
S'\x07\x88\x9e>'
p6892
tp6893
Rp6894
ag2
(g6
S'n?\xa2\xbe'
p6895
tp6896
Rp6897
ag2
(g6
S'\xea\xc1\xd4\xbe'
p6898
tp6899
Rp6900
asI114
(lp6901
g2
(g6
S':\x94C\xbe'
p6902
tp6903
Rp6904
ag2
(g6
S'\xfc\x8f\x99\xbe'
p6905
tp6906
Rp6907
ag2
(g6
S'\xa1B*\xbe'
p6908
tp6909
Rp6910
ag2
(g6
S'Y\xe1\xa9\xbe'
p6911
tp6912
Rp6913
ag2
(g6
S'N\xef\x8e>'
p6914
tp6915
Rp6916
ag2
(g6
S'_\xe0\x19\xbe'
p6917
tp6918
Rp6919
ag2
(g6
S'p\xa5\x11\xbe'
p6920
tp6921
Rp6922
ag2
(g6
S'\x01\xc7\xe8>'
p6923
tp6924
Rp6925
ag2
(g6
S'\xb0tn='
p6926
tp6927
Rp6928
ag2
(g6
S'\xdc\x94\xbd\xbe'
p6929
tp6930
Rp6931
ag2
(g6
S'\xa6t\x07\xbf'
p6932
tp6933
Rp6934
ag2
(g6
S'\xb8\xdf\xc4>'
p6935
tp6936
Rp6937
ag2
(g6
S'X\xaa\xa1>'
p6938
tp6939
Rp6940
ag2
(g6
S'\xccM\x9d\xbe'
p6941
tp6942
Rp6943
ag2
(g6
S'\xfa@\xeb='
p6944
tp6945
Rp6946
ag2
(g6
S'v\x08H\xbf'
p6947
tp6948
Rp6949
ag2
(g6
S'\x1f*=\xbe'
p6950
tp6951
Rp6952
ag2
(g6
S'\xfc\xe2\x00?'
p6953
tp6954
Rp6955
ag2
(g6
S'=\xd8\xdf\xbd'
p6956
tp6957
Rp6958
ag2
(g6
S'tI\xf8\xbe'
p6959
tp6960
Rp6961
asI115
(lp6962
g2
(g6
S'.\x1c\xc8\xbe'
p6963
tp6964
Rp6965
ag2
(g6
S'p#B\xbd'
p6966
tp6967
Rp6968
ag2
(g6
S'\xc6\xc3\x93\xbd'
p6969
tp6970
Rp6971
ag2
(g6
S'\x80\xca\xd8\xba'
p6972
tp6973
Rp6974
ag2
(g6
S'H\x96\x02>'
p6975
tp6976
Rp6977
ag2
(g6
S'k\x1ee\xbe'
p6978
tp6979
Rp6980
ag2
(g6
S'\xfb\xf1d\xbe'
p6981
tp6982
Rp6983
ag2
(g6
S'\x9c#\xb6='
p6984
tp6985
Rp6986
ag2
(g6
S"\x00\xac'\xb9"
p6987
tp6988
Rp6989
ag2
(g6
S'\xd9Kp\xbe'
p6990
tp6991
Rp6992
ag2
(g6
S'\x14\xca{\xbd'
p6993
tp6994
Rp6995
ag2
(g6
S'\xc0\xfd\xda>'
p6996
tp6997
Rp6998
ag2
(g6
S'\x90\x98u>'
p6999
tp7000
Rp7001
ag2
(g6
S'\xcc\xf0\xd2\xbc'
p7002
tp7003
Rp7004
ag2
(g6
S'\xcf\x86\x9a='
p7005
tp7006
Rp7007
ag2
(g6
S'\xbb\x0c\xc5\xbe'
p7008
tp7009
Rp7010
ag2
(g6
S'\t\x9d\x11>'
p7011
tp7012
Rp7013
ag2
(g6
S"$\xaf'>"
p7014
tp7015
Rp7016
ag2
(g6
S'\xdamM='
p7017
tp7018
Rp7019
ag2
(g6
S'zbf\xbe'
p7020
tp7021
Rp7022
asI116
(lp7023
g2
(g6
S'\xe8\x01\x7f\xbd'
p7024
tp7025
Rp7026
ag2
(g6
S'\xb4}p\xbe'
p7027
tp7028
Rp7029
ag2
(g6
S'\xe4\xb6w\xbe'
p7030
tp7031
Rp7032
ag2
(g6
S'L\xe6\x9a\xbe'
p7033
tp7034
Rp7035
ag2
(g6
S'Z\xa8\x19>'
p7036
tp7037
Rp7038
ag2
(g6
S'K\xdf(\xbe'
p7039
tp7040
Rp7041
ag2
(g6
S'\xb6\xbe\xc8='
p7042
tp7043
Rp7044
ag2
(g6
S'e\xce\xc5='
p7045
tp7046
Rp7047
ag2
(g6
S'\xb3\xba\x85='
p7048
tp7049
Rp7050
ag2
(g6
S'(2\x8c\xbe'
p7051
tp7052
Rp7053
ag2
(g6
S',\x8dj\xbe'
p7054
tp7055
Rp7056
ag2
(g6
S'\xbc\x11\x9e>'
p7057
tp7058
Rp7059
ag2
(g6
S'\x84RC='
p7060
tp7061
Rp7062
ag2
(g6
S'<w\x96\xbe'
p7063
tp7064
Rp7065
ag2
(g6
S',\xaa\x8a<'
p7066
tp7067
Rp7068
ag2
(g6
S'Xz+\xbe'
p7069
tp7070
Rp7071
ag2
(g6
S'\xd0\x99i<'
p7072
tp7073
Rp7074
ag2
(g6
S'\xc0\xdf\xca>'
p7075
tp7076
Rp7077
ag2
(g6
S"\xba'7\xbe"
p7078
tp7079
Rp7080
ag2
(g6
S'\x02\xf3\xbd\xbe'
p7081
tp7082
Rp7083
asI117
(lp7084
g2
(g6
S't\xd9\xa6\xbe'
p7085
tp7086
Rp7087
ag2
(g6
S'\x00K\xbd:'
p7088
tp7089
Rp7090
ag2
(g6
S'\x12\x86\x8d\xbe'
p7091
tp7092
Rp7093
ag2
(g6
S'\x80\xde\x98\xbe'
p7094
tp7095
Rp7096
ag2
(g6
S'\xc4\xa2\x12>'
p7097
tp7098
Rp7099
ag2
(g6
S'\x8e\xefw\xbe'
p7100
tp7101
Rp7102
ag2
(g6
S'>\xc3%\xbe'
p7103
tp7104
Rp7105
ag2
(g6
S'\x8e\x8c\t>'
p7106
tp7107
Rp7108
ag2
(g6
S'niv\xbd'
p7109
tp7110
Rp7111
ag2
(g6
S'p\x85g\xbc'
p7112
tp7113
Rp7114
ag2
(g6
S'\x9c3\x08\xbe'
p7115
tp7116
Rp7117
ag2
(g6
S'\xb4\xa8y='
p7118
tp7119
Rp7120
ag2
(g6
S'q\xd2\n>'
p7121
tp7122
Rp7123
ag2
(g6
S'd\xb7\x90\xbe'
p7124
tp7125
Rp7126
ag2
(g6
S'\xa8\x9d;>'
p7127
tp7128
Rp7129
ag2
(g6
S'\xf6CJ\xbe'
p7130
tp7131
Rp7132
ag2
(g6
S'\xff"V>'
p7133
tp7134
Rp7135
ag2
(g6
S'\xa0\xac\xdb>'
p7136
tp7137
Rp7138
ag2
(g6
S'\x06\x1f*\xbd'
p7139
tp7140
Rp7141
ag2
(g6
S'\xc0\xb7\xa6\xbe'
p7142
tp7143
Rp7144
asI118
(lp7145
g2
(g6
S'\xd4p\x9c\xbd'
p7146
tp7147
Rp7148
ag2
(g6
S'\xf8\x86\x80\xbe'
p7149
tp7150
Rp7151
ag2
(g6
S'0\xf4\x89\xbd'
p7152
tp7153
Rp7154
ag2
(g6
S'\x04\x92j='
p7155
tp7156
Rp7157
ag2
(g6
S'\xda\x1dD='
p7158
tp7159
Rp7160
ag2
(g6
S'\xfa\x8e\x87\xbe'
p7161
tp7162
Rp7163
ag2
(g6
S'<"l\xbc'
p7164
tp7165
Rp7166
ag2
(g6
S'\x1eJ\x11>'
p7167
tp7168
Rp7169
ag2
(g6
S'\x0e!r>'
p7170
tp7171
Rp7172
ag2
(g6
S'\xc4\x0f\xd1\xbe'
p7173
tp7174
Rp7175
ag2
(g6
S'\xf4U\xbe\xbe'
p7176
tp7177
Rp7178
ag2
(g6
S'\xd4\xe3\xb6='
p7179
tp7180
Rp7181
ag2
(g6
S',\xde\x1d='
p7182
tp7183
Rp7184
ag2
(g6
S'\xb5\xdd\xb2='
p7185
tp7186
Rp7187
ag2
(g6
S'\xb4\xba\x08\xbd'
p7188
tp7189
Rp7190
ag2
(g6
S'|:t\xbe'
p7191
tp7192
Rp7193
ag2
(g6
S'o\xc5\x03>'
p7194
tp7195
Rp7196
ag2
(g6
S'\xdej\xf7='
p7197
tp7198
Rp7199
ag2
(g6
S'\x16\xebg\xbd'
p7200
tp7201
Rp7202
ag2
(g6
S'\xd4(\xbf\xbd'
p7203
tp7204
Rp7205
asI119
(lp7206
g2
(g6
S'\xfc\x86\x90\xbe'
p7207
tp7208
Rp7209
ag2
(g6
S'\xed\x9d\x85\xbe'
p7210
tp7211
Rp7212
ag2
(g6
S'\x08T\xac<'
p7213
tp7214
Rp7215
ag2
(g6
S'2\xb9\x04\xbf'
p7216
tp7217
Rp7218
ag2
(g6
S'Hw\x8c>'
p7219
tp7220
Rp7221
ag2
(g6
S'\x86\\\x97='
p7222
tp7223
Rp7224
ag2
(g6
S'`\xf5S\xbe'
p7225
tp7226
Rp7227
ag2
(g6
S'#\xa5\x12?'
p7228
tp7229
Rp7230
ag2
(g6
S'\x8e\x98\xc3>'
p7231
tp7232
Rp7233
ag2
(g6
S'\xbf(\x11\xbf'
p7234
tp7235
Rp7236
ag2
(g6
S'\x17\xfa\xd3\xbe'
p7237
tp7238
Rp7239
ag2
(g6
S'(5\xa7>'
p7240
tp7241
Rp7242
ag2
(g6
S'F\xfb@>'
p7243
tp7244
Rp7245
ag2
(g6
S'\x9e\xe6\xa5\xbe'
p7246
tp7247
Rp7248
ag2
(g6
S'\xa1\xb7\xd9>'
p7249
tp7250
Rp7251
ag2
(g6
S'\x9e\x19\xaa\xbe'
p7252
tp7253
Rp7254
ag2
(g6
S'@-\x07?'
p7255
tp7256
Rp7257
ag2
(g6
S'\xfa\xd4\xbd>'
p7258
tp7259
Rp7260
ag2
(g6
S'\x13\x04\x95\xbe'
p7261
tp7262
Rp7263
ag2
(g6
S'\x9a\\\x8c\xbe'
p7264
tp7265
Rp7266
asI120
(lp7267
g2
(g6
S'EF\x1f\xbe'
p7268
tp7269
Rp7270
ag2
(g6
S'\x14U\xbb\xbe'
p7271
tp7272
Rp7273
ag2
(g6
S'\x8f\xb2u\xbe'
p7274
tp7275
Rp7276
ag2
(g6
S'\xb7\xf0\xdf\xbd'
p7277
tp7278
Rp7279
ag2
(g6
S'G)\x9f>'
p7280
tp7281
Rp7282
ag2
(g6
S'\xac3y<'
p7283
tp7284
Rp7285
ag2
(g6
S'B\x98\x8c\xbe'
p7286
tp7287
Rp7288
ag2
(g6
S'\x17\xcb\x8e>'
p7289
tp7290
Rp7291
ag2
(g6
S'\xde\x0f}>'
p7292
tp7293
Rp7294
ag2
(g6
S'\xd2)\x83\xbe'
p7295
tp7296
Rp7297
ag2
(g6
S'\x8e\xca\x92\xbd'
p7298
tp7299
Rp7300
ag2
(g6
S'J#\x11?'
p7301
tp7302
Rp7303
ag2
(g6
S'\x066\xd8>'
p7304
tp7305
Rp7306
ag2
(g6
S'\x0c\x10\xb0\xbe'
p7307
tp7308
Rp7309
ag2
(g6
S'\x85\x08\xcd>'
p7310
tp7311
Rp7312
ag2
(g6
S'\xfcm\x1a\xbf'
p7313
tp7314
Rp7315
ag2
(g6
S'\xc8\xd9\xa2\xbc'
p7316
tp7317
Rp7318
ag2
(g6
S'\xe6\x97\x06?'
p7319
tp7320
Rp7321
ag2
(g6
S'\x81=\x88\xbe'
p7322
tp7323
Rp7324
ag2
(g6
S'\xa8\xfc\xa8\xbe'
p7325
tp7326
Rp7327
as.