((dp0
VRazor
p1
I15
sVNight Stalker
p2
I60
sVNaga Siren
p3
I89
sVUndying
p4
I85
sVDragon Knight
p5
I49
sVJuggernaut
p6
I8
sVUrsa
p7
I70
sVUnderlord
p8
I108
sVBane
p9
I3
sVVenomancer
p10
I40
sVTinker
p11
I34
sVAncient Apparition
p12
I68
sVOmniknight
p13
I57
sVChaos Knight
p14
I81
sVOutworld Devourer
p15
I76
sVAbaddon
p16
I102
sVMonkey King
p17
I114
sVFaceless Void
p18
I41
sVMirana
p19
I9
sVBristleback
p20
I99
sVElder Titan
p21
I103
sVLone Druid
p22
I80
sVShadow Fiend
p23
I11
sVTemplar Assassin
p24
I46
sVShadow Demon
p25
I79
sVAnti-Mage
p26
I1
sVKeeper of the Light
p27
I90
sVNecrophos
p28
I36
sVTechies
p29
I105
sVMedusa
p30
I94
sVSlardar
p31
I28
sVPhantom Lancer
p32
I12
sVTiny
p33
I19
sVRiki
p34
I32
sVInvoker
p35
I74
sVSniper
p36
I35
sVMeepo
p37
I82
sVLeshrac
p38
I52
sVZeus
p39
I22
sVSilencer
p40
I75
sVBroodmother
p41
I61
sVEnigma
p42
I33
sVDark Willow
p43
I119
sVDoom
p44
I69
sVLina
p45
I25
sVAlchemist
p46
I73
sVBatrider
p47
I65
sVBrewmaster
p48
I78
sVAxe
p49
I2
sVSkywrath Mage
p50
I101
sVClinkz
p51
I56
sVGyrocopter
p52
I72
sVPugna
p53
I45
sVMorphling
p54
I10
sVDeath Prophet
p55
I43
sVLion
p56
I26
sVOgre Magi
p57
I84
sVDazzle
p58
I50
sVMagnus
p59
I97
sVEarth Spirit
p60
I107
sVPudge
p61
I14
sVStorm Spirit
p62
I17
sVNature's Prophet
p63
I53
sVWarlock
p64
I37
sVSpirit Breaker
p65
I71
sVCrystal Maiden
p66
I5
sVSven
p67
I18
sVHuskar
p68
I59
sVShadow Shaman
p69
I27
sVLich
p70
I31
sVSand King
p71
I16
sVDark Seer
p72
I55
sVLifestealer
p73
I54
sVClockwerk
p74
I51
sVWitch Doctor
p75
I30
sVOracle
p76
I111
sVEnchantress
p77
I58
sVEarthshaker
p78
I7
sVPuck
p79
I13
sVNyx Assassin
p80
I88
sVBounty Hunter
p81
I62
sVLuna
p82
I48
sVCentaur Warrunner
p83
I96
sVDisruptor
p84
I87
sVTimbersaw
p85
I98
sVQueen of Pain
p86
I39
sVViper
p87
I47
sVTusk
p88
I100
sVLycan
p89
I77
sVWinter Wyvern
p90
I112
sVPhoenix
p91
I110
sVBeastmaster
p92
I38
sVBloodseeker
p93
I4
sVJakiro
p94
I64
sVWindranger
p95
I21
sVDrow Ranger
p96
I6
sVPangolier
p97
I120
sVVengeful Spirit
p98
I20
sVIo
p99
I91
sVTerrorblade
p100
I109
sVSpectre
p101
I67
sVKunkka
p102
I23
sVSlark
p103
I93
sVWeaver
p104
I63
sVTroll Warlord
p105
I95
sVTreant Protector
p106
I83
sVVisage
p107
I92
sVEmber Spirit
p108
I106
sVArc Warden
p109
I113
sVLegion Commander
p110
I104
sVWraith King
p111
I42
sVTidehunter
p112
I29
sVPhantom Assassin
p113
I44
sVChen
p114
I66
sVRubick
p115
I86
s(dp116
I1
g26
sI2
g49
sI3
g9
sI4
g93
sI5
g66
sI6
g96
sI7
g78
sI8
g6
sI9
g19
sI10
g54
sI11
g23
sI12
g32
sI13
g79
sI14
g61
sI15
g1
sI16
g71
sI17
g62
sI18
g67
sI19
g33
sI20
g98
sI21
g95
sI22
g39
sI23
g102
sI25
g45
sI26
g56
sI27
g69
sI28
g31
sI29
g112
sI30
g75
sI31
g70
sI32
g34
sI33
g42
sI34
g11
sI35
g36
sI36
g28
sI37
g64
sI38
g92
sI39
g86
sI40
g10
sI41
g18
sI42
g111
sI43
g55
sI44
g113
sI45
g53
sI46
g24
sI47
g87
sI48
g82
sI49
g5
sI50
g58
sI51
g74
sI52
g38
sI53
g63
sI54
g73
sI55
g72
sI56
g51
sI57
g13
sI58
g77
sI59
g68
sI60
g2
sI61
g41
sI62
g81
sI63
g104
sI64
g94
sI65
g47
sI66
g114
sI67
g101
sI68
g12
sI69
g44
sI70
g7
sI71
g65
sI72
g52
sI73
g46
sI74
g35
sI75
g40
sI76
g15
sI77
g89
sI78
g48
sI79
g25
sI80
g22
sI81
g14
sI82
g37
sI83
g106
sI84
g57
sI85
g4
sI86
g115
sI87
g84
sI88
g80
sI89
g3
sI90
g27
sI91
g99
sI92
g107
sI93
g103
sI94
g30
sI95
g105
sI96
g83
sI97
g59
sI98
g85
sI99
g20
sI100
g88
sI101
g50
sI102
g16
sI103
g21
sI104
g110
sI105
g29
sI106
g108
sI107
g60
sI108
g8
sI109
g100
sI110
g91
sI111
g76
sI112
g90
sI113
g109
sI114
g17
sI119
g43
sI120
g97
stp117
.